(dp0
S'cookies'
p1
(dp2
S'webwx_data_ticket'
p3
S'gSfgROed5XM/Cr8rMM2Hm0oi'
p4
sS'wxuin'
p5
S'2704422431'
p6
sS'webwxuvid'
p7
S'a18f356dfde46913dba3efdd59144b582ff1ee2530dfa34b2c8dde0785782d205fc9ed6a9c692bae72aebc7638ce7e22'
p8
sS'webwx_auth_ticket'
p9
S'CIsBEKTm1e4DGoAB/hbO7Xxk3le9v/sfNu6PopYekVHLWnCk9wGycCvhQfa0HFvjMDblEyBPKarKZifKDxIKfxGeT6waiR9Uu2qUn2Ut9V0w+9qjVkQXJAtgugUA0GU7G605Lj7Yxc2O0v+T6pax/yIVJghJVyLmJYVNWBRjpeaPT+5INPTEpx/5qMA='
p10
sS'wxloadtime'
p11
S'1503568034'
p12
sS'wxsid'
p13
S'YTpoEutkltwDCxyq'
p14
sS'mm_lang'
p15
S'zh_CN'
p16
ssS'version'
p17
S'1.3.9'
p18
sS'storage'
p19
(dp20
S'userName'
p21
V@ad279a6617ac40d40e68040fa0df1cd8d2c051742be9d334d5060edde1b58e8c
p22
sS'lastInputUserName'
p23
NsS'memberList'
p24
ccopy_reg
_reconstructor
p25
(citchat.storage.templates
ContactList
p26
c__builtin__
list
p27
(lp28
g25
(citchat.storage.templates
User
p29
c__builtin__
dict
p30
(dp31
S'UserName'
p32
g22
sS'City'
p33
S''
p34
sS'DisplayName'
p35
g34
sS'UniFriend'
p36
I0
sS'OwnerUin'
p37
I0
sS'MemberList'
p38
g25
(g26
g27
(lp39
tp40
Rp41
I1
bsS'PYQuanPin'
p42
V
p43
sS'RemarkPYInitial'
p44
g43
sS'Uin'
p45
L2704422431L
sS'AppAccountFlag'
p46
I0
sS'VerifyFlag'
p47
I0
sS'Province'
p48
g34
sS'KeyWord'
p49
g34
sS'RemarkName'
p50
g43
sS'PYInitial'
p51
g43
sS'ChatRoomId'
p52
I0
sS'HideInputBarFlag'
p53
I0
sVHeadImgFlag
p54
I1
sS'EncryChatRoomId'
p55
g34
sS'AttrStatus'
p56
I0
sS'SnsFlag'
p57
I1
sS'MemberCount'
p58
I0
sVWebWxPluginSwitch
p59
I0
sS'Alias'
p60
g34
sS'Signature'
p61
V\u4e0a\u5e1d\u4f5c\u8bc1\u6211\u662f\u4e2a\u597d\u5b69\u5b50\u3002
p62
sS'ContactFlag'
p63
I0
sS'NickName'
p64
V\u541b\u83ab\u60dc
p65
sS'RemarkPYQuanPin'
p66
g43
sS'HeadImgUrl'
p67
V/cgi-bin/mmwebwx-bin/webwxgeticon?seq=1521120379&username=@ad279a6617ac40d40e68040fa0df1cd8d2c051742be9d334d5060edde1b58e8c&skey=@crypt_84c2f365_aeea69fa1143cd9832a4eea0fef6f1de
p68
sS'Sex'
p69
I1
sS'StarFriend'
p70
I0
sS'Statues'
p71
I0
stp72
Rp73
I1
bag25
(g29
g30
(dp74
VUserName
p75
V@802828b67984cd4f09a60dc651283f3537e825ce6e19e5b5529fe672f6e3fc4c
p76
sVCity
p77
g43
sVSnsFlag
p78
I1
sVDisplayName
p79
g43
sVUniFriend
p80
I0
sVMemberCount
p81
I0
sVOwnerUin
p82
I0
sVMemberList
p83
g41
sVAlias
p84
g43
sVPYQuanPin
p85
Vqingzhuangqianxing
p86
sVSignature
p87
V\u4e0d\u60f3\u542c\u592a\u591a\uff0c\u90a3\u865a\u5047\u7684\u627f\u8bfa
p88
sVRemarkPYInitial
p89
VYYH
p90
sVContactFlag
p91
I3
sVUin
p92
I0
sVNickName
p93
V\u8f7b\u88c5@\u524d\u884c
p94
sVAppAccountFlag
p95
I0
sVVerifyFlag
p96
I0
sVRemarkPYQuanPin
p97
Vyangyanhua
p98
sVHeadImgUrl
p99
V/cgi-bin/mmwebwx-bin/webwxgeticon?seq=634151355&username=@802828b67984cd4f09a60dc651283f3537e825ce6e19e5b5529fe672f6e3fc4c&skey=@crypt_84c2f365_aeea69fa1143cd9832a4eea0fef6f1de
p100
sVKeyWord
p101
g43
sVProvince
p102
g43
sVPYInitial
p103
VQZQX
p104
sVRemarkName
p105
V\u6768\u8273\u534e
p106
sVIsOwner
p107
I0
sVSex
p108
I0
sVStarFriend
p109
I0
sVHideInputBarFlag
p110
I0
sVChatRoomId
p111
I0
sVEncryChatRoomId
p112
g43
sVAttrStatus
p113
I4285
sVStatues
p114
I0
stp115
Rp116
I1
bag25
(g29
g30
(dp117
VUserName
p118
V@93ef822c6c33f93d166c4d909f41f251d31a2766fe316e9752a320e1ef199b62
p119
sVCity
p120
g43
sVSnsFlag
p121
I0
sVDisplayName
p122
g43
sVUniFriend
p123
I0
sVMemberCount
p124
I0
sVOwnerUin
p125
I0
sVMemberList
p126
g41
sVAlias
p127
g43
sVPYQuanPin
p128
Vhuangnianzhigu
p129
sVSignature
p130
g43
sVRemarkPYInitial
p131
VHCZ
p132
sVContactFlag
p133
I1
sVUin
p134
I0
sVNickName
p135
V\u8352\u5e74\u4e4b\u8c37
p136
sVAppAccountFlag
p137
I0
sVVerifyFlag
p138
I0
sVRemarkPYQuanPin
p139
Vhuangchangzhen
p140
sVHeadImgUrl
p141
V/cgi-bin/mmwebwx-bin/webwxgeticon?seq=637460402&username=@93ef822c6c33f93d166c4d909f41f251d31a2766fe316e9752a320e1ef199b62&skey=@crypt_84c2f365_aeea69fa1143cd9832a4eea0fef6f1de
p142
sVKeyWord
p143
g43
sVProvince
p144
g43
sVPYInitial
p145
VHNZG
p146
sVRemarkName
p147
V\u9ec4\u957f\u9707
p148
sVIsOwner
p149
I0
sVSex
p150
I0
sVStarFriend
p151
I0
sVHideInputBarFlag
p152
I0
sVChatRoomId
p153
I0
sVEncryChatRoomId
p154
g43
sVAttrStatus
p155
I4129
sVStatues
p156
I0
stp157
Rp158
I1
bag25
(g29
g30
(dp159
VUserName
p160
V@30299dbf0506749bde93c66ec3ceb8d9a2973ef88e446a9ad44d2cbd1f8e2082
p161
sVCity
p162
g43
sVSnsFlag
p163
I1
sVDisplayName
p164
g43
sVUniFriend
p165
I0
sVMemberCount
p166
I0
sVOwnerUin
p167
I0
sVMemberList
p168
g41
sVAlias
p169
g43
sVPYQuanPin
p170
Vwangdongbo
p171
sVSignature
p172
g43
sVRemarkPYInitial
p173
VWDP
p174
sVContactFlag
p175
I1
sVUin
p176
I0
sVNickName
p177
V\u738b\u4e1c\u6ce2
p178
sVAppAccountFlag
p179
I0
sVVerifyFlag
p180
I0
sVRemarkPYQuanPin
p181
Vwangdongpo
p182
sVHeadImgUrl
p183
V/cgi-bin/mmwebwx-bin/webwxgeticon?seq=634153365&username=@30299dbf0506749bde93c66ec3ceb8d9a2973ef88e446a9ad44d2cbd1f8e2082&skey=@crypt_84c2f365_aeea69fa1143cd9832a4eea0fef6f1de
p184
sVKeyWord
p185
g43
sVProvince
p186
g43
sVPYInitial
p187
VWDB
p188
sVRemarkName
p189
V\u738b\u4e1c\u7834
p190
sVIsOwner
p191
I0
sVSex
p192
I0
sVStarFriend
p193
I0
sVHideInputBarFlag
p194
I0
sVChatRoomId
p195
I0
sVEncryChatRoomId
p196
g43
sVAttrStatus
p197
I4285
sVStatues
p198
I0
stp199
Rp200
I1
bag25
(g29
g30
(dp201
VUserName
p202
V@dc25198bbd730eefa3702b4605c4d16db7965ab6587cf16a82c3fe65eab8815b
p203
sVCity
p204
V\u90d1\u5dde
p205
sVSnsFlag
p206
I1
sVDisplayName
p207
g43
sVUniFriend
p208
I0
sVMemberCount
p209
I0
sVOwnerUin
p210
I0
sVMemberList
p211
g41
sVAlias
p212
g43
sVPYQuanPin
p213
Vmaomi
p214
sVSignature
p215
V\u96c5\u4e2b
p216
sVRemarkPYInitial
p217
VYYXJ
p218
sVContactFlag
p219
I1
sVUin
p220
I0
sVNickName
p221
V\u732b\u54aa
p222
sVAppAccountFlag
p223
I0
sVVerifyFlag
p224
I0
sVRemarkPYQuanPin
p225
Vyayaxuejie
p226
sVHeadImgUrl
p227
V/cgi-bin/mmwebwx-bin/webwxgeticon?seq=639250546&username=@dc25198bbd730eefa3702b4605c4d16db7965ab6587cf16a82c3fe65eab8815b&skey=@crypt_84c2f365_aeea69fa1143cd9832a4eea0fef6f1de
p228
sVKeyWord
p229
g43
sVProvince
p230
V\u6cb3\u5357
p231
sVPYInitial
p232
VMM
p233
sVRemarkName
p234
V\u4e2b\u4e2b\u5b66\u59d0
p235
sVIsOwner
p236
I0
sVSex
p237
I2
sVStarFriend
p238
I0
sVHideInputBarFlag
p239
I0
sVChatRoomId
p240
I0
sVEncryChatRoomId
p241
g43
sVAttrStatus
p242
I4197
sVStatues
p243
I0
stp244
Rp245
I1
bag25
(g29
g30
(dp246
VUserName
p247
V@37e132acc462160996a402e3803e056fcdf077e42c9e1aa74a08f9f497ccd15b
p248
sVCity
p249
V\u5e73\u9876\u5c71
p250
sVSnsFlag
p251
I0
sVDisplayName
p252
g43
sVUniFriend
p253
I0
sVMemberCount
p254
I0
sVOwnerUin
p255
I0
sVMemberList
p256
g41
sVAlias
p257
g43
sVPYQuanPin
p258
Vlinglafanchen
p259
sVSignature
p260
V\u4eba\u751f\u4e0d\u8fc7\u5982\u6b64
p261
sVRemarkPYInitial
p262
VGH
p263
sVContactFlag
p264
I1
sVUin
p265
I0
sVNickName
p266
V\u96f6\u843d\u51e1\u5c18
p267
sVAppAccountFlag
p268
I0
sVVerifyFlag
p269
I0
sVRemarkPYQuanPin
p270
Vguanghui
p271
sVHeadImgUrl
p272
V/cgi-bin/mmwebwx-bin/webwxgeticon?seq=634152456&username=@37e132acc462160996a402e3803e056fcdf077e42c9e1aa74a08f9f497ccd15b&skey=@crypt_84c2f365_aeea69fa1143cd9832a4eea0fef6f1de
p273
sVKeyWord
p274
g43
sVProvince
p275
V\u6cb3\u5357
p276
sVPYInitial
p277
VLLFC
p278
sVRemarkName
p279
V\u5149\u8f89
p280
sVIsOwner
p281
I0
sVSex
p282
I1
sVStarFriend
p283
I0
sVHideInputBarFlag
p284
I0
sVChatRoomId
p285
I0
sVEncryChatRoomId
p286
g43
sVAttrStatus
p287
I135269
sVStatues
p288
I0
stp289
Rp290
I1
bag25
(g29
g30
(dp291
VUserName
p292
V@bb5b14d4778f5d1a371be865cf4715798ba57dab001535cec70da9365096039f
p293
sVCity
p294
V\u5b81\u6ce2
p295
sVSnsFlag
p296
I1
sVDisplayName
p297
g43
sVUniFriend
p298
I0
sVMemberCount
p299
I0
sVOwnerUin
p300
I0
sVMemberList
p301
g41
sVAlias
p302
g43
sVPYQuanPin
p303
Vshijiangaibianxintai
p304
sVSignature
p305
V\u65f6\u95f4\u6539\u53d8\u4e00\u5207
p306
sVRemarkPYInitial
p307
VDJ
p308
sVContactFlag
p309
I1
sVUin
p310
I0
sVNickName
p311
V\u65f6\u95f4\u6539\u53d8\u5fc3\u6001
p312
sVAppAccountFlag
p313
I0
sVVerifyFlag
p314
I0
sVRemarkPYQuanPin
p315
Vdejie
p316
sVHeadImgUrl
p317
V/cgi-bin/mmwebwx-bin/webwxgeticon?seq=639250389&username=@bb5b14d4778f5d1a371be865cf4715798ba57dab001535cec70da9365096039f&skey=@crypt_84c2f365_aeea69fa1143cd9832a4eea0fef6f1de
p318
sVKeyWord
p319
g43
sVProvince
p320
V\u6d59\u6c5f
p321
sVPYInitial
p322
VSJGBXT
p323
sVRemarkName
p324
V\u5fb7\u6770
p325
sVIsOwner
p326
I0
sVSex
p327
I1
sVStarFriend
p328
I0
sVHideInputBarFlag
p329
I0
sVChatRoomId
p330
I0
sVEncryChatRoomId
p331
g43
sVAttrStatus
p332
I4285
sVStatues
p333
I0
stp334
Rp335
I1
bag25
(g29
g30
(dp336
VUserName
p337
V@48a5bd87edbbd790a5adec0406001efd051f17cec6d27b4aa78c0e423d9dea2a
p338
sVCity
p339
V\u5468\u53e3
p340
sVSnsFlag
p341
I1
sVDisplayName
p342
g43
sVUniFriend
p343
I0
sVMemberCount
p344
I0
sVOwnerUin
p345
I0
sVMemberList
p346
g41
sVAlias
p347
g43
sVPYQuanPin
p348
Vmengyanxiaoxi
p349
sVSignature
p350
g43
sVRemarkPYInitial
p351
VYY
p352
sVContactFlag
p353
I1
sVUin
p354
I0
sVNickName
p355
V\u840c\u598d\u5c0f\u5e0c
p356
sVAppAccountFlag
p357
I0
sVVerifyFlag
p358
I0
sVRemarkPYQuanPin
p359
Vyanyan
p360
sVHeadImgUrl
p361
V/cgi-bin/mmwebwx-bin/webwxgeticon?seq=645950634&username=@48a5bd87edbbd790a5adec0406001efd051f17cec6d27b4aa78c0e423d9dea2a&skey=@crypt_84c2f365_aeea69fa1143cd9832a4eea0fef6f1de
p362
sVKeyWord
p363
g43
sVProvince
p364
V\u6cb3\u5357
p365
sVPYInitial
p366
VMYXX
p367
sVRemarkName
p368
V\u7814\u598d
p369
sVIsOwner
p370
I0
sVSex
p371
I2
sVStarFriend
p372
I0
sVHideInputBarFlag
p373
I0
sVChatRoomId
p374
I0
sVEncryChatRoomId
p375
g43
sVAttrStatus
p376
I4193
sVStatues
p377
I0
stp378
Rp379
I1
bag25
(g29
g30
(dp380
VUserName
p381
V@95a92f2ac12653a6900a53ace4fa3b5a5b6d6e6b84c9bddc0f71e3849f95e906
p382
sVCity
p383
V\u5468\u53e3
p384
sVSnsFlag
p385
I49
sVDisplayName
p386
g43
sVUniFriend
p387
I0
sVMemberCount
p388
I0
sVOwnerUin
p389
I0
sVMemberList
p390
g41
sVAlias
p391
g43
sVPYQuanPin
p392
Vspanclassemojiemoji1f339spanspanclassemojiemoji1f339spanspanclassemojiemoji1f339span
p393
sVSignature
p394
V\u7ad9\u5728\u65e0\u5c3d\u7ea2\u5c18\u4e2d\u3001\u4ef0\u671b\u66fe\u6709\u4f60\u7684\u82cd\u7a79\u3001
p395
sVRemarkPYInitial
p396
VCJX
p397
sVContactFlag
p398
I1
sVUin
p399
I0
sVNickName
p400
V\U0001f339\U0001f339\U0001f339
p401
sVAppAccountFlag
p402
I0
sVVerifyFlag
p403
I0
sVRemarkPYQuanPin
p404
Vchengjinxiu
p405
sVHeadImgUrl
p406
V/cgi-bin/mmwebwx-bin/webwxgeticon?seq=634150917&username=@95a92f2ac12653a6900a53ace4fa3b5a5b6d6e6b84c9bddc0f71e3849f95e906&skey=@crypt_84c2f365_aeea69fa1143cd9832a4eea0fef6f1de
p407
sVKeyWord
p408
g43
sVProvince
p409
V\u6cb3\u5357
p410
sVPYInitial
p411
VSPANCLASSEMOJIEMOJI1F339SPANSPANCLASSEMOJIEMOJI1F339SPANSPANCLASSEMOJIEMOJI1F339SPAN
p412
sVRemarkName
p413
V\u7a0b\u9526\u7ee3
p414
sVIsOwner
p415
I0
sVSex
p416
I2
sVStarFriend
p417
I0
sVHideInputBarFlag
p418
I0
sVChatRoomId
p419
I0
sVEncryChatRoomId
p420
g43
sVAttrStatus
p421
I102437
sVStatues
p422
I0
stp423
Rp424
I1
bag25
(g29
g30
(dp425
VUserName
p426
V@85a73812c546b815fbe93849eec451653603a1d3abab8bd3e8822fbaa75f2228
p427
sVCity
p428
V\u70df\u53f0
p429
sVSnsFlag
p430
I17
sVDisplayName
p431
g43
sVUniFriend
p432
I0
sVMemberCount
p433
I0
sVOwnerUin
p434
I0
sVMemberList
p435
g41
sVAlias
p436
g43
sVPYQuanPin
p437
Vmumu
p438
sVSignature
p439
g43
sVRemarkPYInitial
p440
VXF
p441
sVContactFlag
p442
I65537
sVUin
p443
I0
sVNickName
p444
V\u9702\u9702
p445
sVAppAccountFlag
p446
I0
sVVerifyFlag
p447
I0
sVRemarkPYQuanPin
p448
Vxiaofei
p449
sVHeadImgUrl
p450
V/cgi-bin/mmwebwx-bin/webwxgeticon?seq=642270130&username=@85a73812c546b815fbe93849eec451653603a1d3abab8bd3e8822fbaa75f2228&skey=@crypt_84c2f365_aeea69fa1143cd9832a4eea0fef6f1de
p451
sVKeyWord
p452
g43
sVProvince
p453
V\u5c71\u4e1c
p454
sVPYInitial
p455
VMM
p456
sVRemarkName
p457
V\u5c0f\u98de
p458
sVIsOwner
p459
I0
sVSex
p460
I2
sVStarFriend
p461
I0
sVHideInputBarFlag
p462
I0
sVChatRoomId
p463
I0
sVEncryChatRoomId
p464
g43
sVAttrStatus
p465
I4345
sVStatues
p466
I0
stp467
Rp468
I1
bag25
(g29
g30
(dp469
VUserName
p470
V@187c87ec37ca7fbf88422dee1cb3f3c7d95dde9c61c830552265801960b5cf29
p471
sVCity
p472
V\u77f3\u666f\u5c71
p473
sVSnsFlag
p474
I1
sVDisplayName
p475
g43
sVUniFriend
p476
I0
sVMemberCount
p477
I0
sVOwnerUin
p478
I0
sVMemberList
p479
g41
sVAlias
p480
g43
sVPYQuanPin
p481
Vampsuxuepiaoling
p482
sVSignature
p483
V\u4e16\u754c\u4e0a\u6700\u75db\u7684\u75db\u662f\u770b\u7740\u66fe\u7ecf\u4fe1\u8a93\u65e6\u65e6\u8bf4\u7231\u81ea\u5df1\u7684\u4eba\u8f6c\u8eab\u7231\u4e86\u522b\u4eba\uff1b
p484
sVRemarkPYInitial
p485
VXY
p486
sVContactFlag
p487
I1
sVUin
p488
I0
sVNickName
p489
V&amp;\u7d20\u96ea\u98d8\u96f6@
p490
sVAppAccountFlag
p491
I0
sVVerifyFlag
p492
I0
sVRemarkPYQuanPin
p493
Vxiaoying
p494
sVHeadImgUrl
p495
V/cgi-bin/mmwebwx-bin/webwxgeticon?seq=648750150&username=@187c87ec37ca7fbf88422dee1cb3f3c7d95dde9c61c830552265801960b5cf29&skey=@crypt_84c2f365_aeea69fa1143cd9832a4eea0fef6f1de
p496
sVKeyWord
p497
g43
sVProvince
p498
V\u5317\u4eac
p499
sVPYInitial
p500
VAMPSXPL
p501
sVRemarkName
p502
V\u5c0f\u83b9
p503
sVIsOwner
p504
I0
sVSex
p505
I2
sVStarFriend
p506
I0
sVHideInputBarFlag
p507
I0
sVChatRoomId
p508
I0
sVEncryChatRoomId
p509
g43
sVAttrStatus
p510
I16782237
sVStatues
p511
I0
stp512
Rp513
I1
bag25
(g29
g30
(dp514
VUserName
p515
V@8eefbfd1c9c5d942939efeb48022fe60f78ddab42149f8dcdf2ae98e70ac77e1
p516
sVCity
p517
g43
sVSnsFlag
p518
I0
sVDisplayName
p519
g43
sVUniFriend
p520
I0
sVMemberCount
p521
I0
sVOwnerUin
p522
I0
sVMemberList
p523
g41
sVAlias
p524
g43
sVPYQuanPin
p525
Vbihua
p526
sVSignature
p527
g43
sVRemarkPYInitial
p528
VWT
p529
sVContactFlag
p530
I1
sVUin
p531
I0
sVNickName
p532
V\u58c1\u82b1
p533
sVAppAccountFlag
p534
I0
sVVerifyFlag
p535
I0
sVRemarkPYQuanPin
p536
Vwangtao
p537
sVHeadImgUrl
p538
V/cgi-bin/mmwebwx-bin/webwxgeticon?seq=652563631&username=@8eefbfd1c9c5d942939efeb48022fe60f78ddab42149f8dcdf2ae98e70ac77e1&skey=@crypt_84c2f365_aeea69fa1143cd9832a4eea0fef6f1de
p539
sVKeyWord
p540
g43
sVProvince
p541
g43
sVPYInitial
p542
VBH
p543
sVRemarkName
p544
V\u6c6a\u6d9b
p545
sVIsOwner
p546
I0
sVSex
p547
I0
sVStarFriend
p548
I0
sVHideInputBarFlag
p549
I0
sVChatRoomId
p550
I0
sVEncryChatRoomId
p551
g43
sVAttrStatus
p552
I4133
sVStatues
p553
I0
stp554
Rp555
I1
bag25
(g29
g30
(dp556
VUserName
p557
V@cf982ac21a5c730dac52bab281f20b8c40bee6f607bf3fe6721805e9460a1093
p558
sVCity
p559
V\u5357\u9633
p560
sVSnsFlag
p561
I1
sVDisplayName
p562
g43
sVUniFriend
p563
I0
sVMemberCount
p564
I0
sVOwnerUin
p565
I0
sVMemberList
p566
g41
sVAlias
p567
g43
sVPYQuanPin
p568
Vxiaotaiyang
p569
sVSignature
p570
V\u7231\u5728\u8def\u4e0a
p571
sVRemarkPYInitial
p572
VFJY
p573
sVContactFlag
p574
I1
sVUin
p575
I0
sVNickName
p576
V\u5c0f\u592a\u9633
p577
sVAppAccountFlag
p578
I0
sVVerifyFlag
p579
I0
sVRemarkPYQuanPin
p580
Vfujinyang
p581
sVHeadImgUrl
p582
V/cgi-bin/mmwebwx-bin/webwxgeticon?seq=645950710&username=@cf982ac21a5c730dac52bab281f20b8c40bee6f607bf3fe6721805e9460a1093&skey=@crypt_84c2f365_aeea69fa1143cd9832a4eea0fef6f1de
p583
sVKeyWord
p584
g43
sVProvince
p585
V\u6cb3\u5357
p586
sVPYInitial
p587
VXTY
p588
sVRemarkName
p589
V\u7b26\u91d1\u9633
p590
sVIsOwner
p591
I0
sVSex
p592
I1
sVStarFriend
p593
I0
sVHideInputBarFlag
p594
I0
sVChatRoomId
p595
I0
sVEncryChatRoomId
p596
g43
sVAttrStatus
p597
I4133
sVStatues
p598
I0
stp599
Rp600
I1
bag25
(g29
g30
(dp601
VUserName
p602
V@82dee0ee9980e7ee4ca4523f249de79c5e95130141fea3ddd741ebb1aad86782
p603
sVCity
p604
V\u6d1b\u9633
p605
sVSnsFlag
p606
I1
sVDisplayName
p607
g43
sVUniFriend
p608
I0
sVMemberCount
p609
I0
sVOwnerUin
p610
I0
sVMemberList
p611
g41
sVAlias
p612
g43
sVPYQuanPin
p613
Vliu
p614
sVSignature
p615
g43
sVRemarkPYInitial
p616
VLDK
p617
sVContactFlag
p618
I1
sVUin
p619
I0
sVNickName
p620
V\u5218
p621
sVAppAccountFlag
p622
I0
sVVerifyFlag
p623
I0
sVRemarkPYQuanPin
p624
Vliudianke
p625
sVHeadImgUrl
p626
V/cgi-bin/mmwebwx-bin/webwxgeticon?seq=666740391&username=@82dee0ee9980e7ee4ca4523f249de79c5e95130141fea3ddd741ebb1aad86782&skey=@crypt_84c2f365_aeea69fa1143cd9832a4eea0fef6f1de
p627
sVKeyWord
p628
g43
sVProvince
p629
V\u6cb3\u5357
p630
sVPYInitial
p631
VL
p632
sVRemarkName
p633
V\u5218\u7535\u79d1
p634
sVIsOwner
p635
I0
sVSex
p636
I1
sVStarFriend
p637
I0
sVHideInputBarFlag
p638
I0
sVChatRoomId
p639
I0
sVEncryChatRoomId
p640
g43
sVAttrStatus
p641
I135269
sVStatues
p642
I0
stp643
Rp644
I1
bag25
(g29
g30
(dp645
VUserName
p646
V@e915bb6f2529dda31401c38da29fee3d7341924beff85a888e845be19046d68f
p647
sVCity
p648
g43
sVSnsFlag
p649
I0
sVDisplayName
p650
g43
sVUniFriend
p651
I0
sVMemberCount
p652
I0
sVOwnerUin
p653
I0
sVMemberList
p654
g41
sVAlias
p655
g43
sVPYQuanPin
p656
Vting
p657
sVSignature
p658
g43
sVRemarkPYInitial
p659
VGXT
p660
sVContactFlag
p661
I1
sVUin
p662
I0
sVNickName
p663
V\u4ead
p664
sVAppAccountFlag
p665
I0
sVVerifyFlag
p666
I0
sVRemarkPYQuanPin
p667
Vgaoxueting
p668
sVHeadImgUrl
p669
V/cgi-bin/mmwebwx-bin/webwxgeticon?seq=666740434&username=@e915bb6f2529dda31401c38da29fee3d7341924beff85a888e845be19046d68f&skey=@crypt_84c2f365_aeea69fa1143cd9832a4eea0fef6f1de
p670
sVKeyWord
p671
g43
sVProvince
p672
g43
sVPYInitial
p673
VT
p674
sVRemarkName
p675
V\u9ad8\u5b66\u4ead
p676
sVIsOwner
p677
I0
sVSex
p678
I0
sVStarFriend
p679
I0
sVHideInputBarFlag
p680
I0
sVChatRoomId
p681
I0
sVEncryChatRoomId
p682
g43
sVAttrStatus
p683
I4133
sVStatues
p684
I0
stp685
Rp686
I1
bag25
(g29
g30
(dp687
VUserName
p688
V@5d75d4e5a5d62567a70cd125a9011e8ff850f37657e51c70cd7f25ca9900fa8d
p689
sVCity
p690
V\u90d1\u5dde
p691
sVSnsFlag
p692
I17
sVDisplayName
p693
g43
sVUniFriend
p694
I0
sVMemberCount
p695
I0
sVOwnerUin
p696
I0
sVMemberList
p697
g41
sVAlias
p698
g43
sVPYQuanPin
p699
Vha
p700
sVSignature
p701
V\u65e0\u804a
p702
sVRemarkPYInitial
p703
VZZY
p704
sVContactFlag
p705
I1
sVUin
p706
I0
sVNickName
p707
V\u54c8\u3002
p708
sVAppAccountFlag
p709
I0
sVVerifyFlag
p710
I0
sVRemarkPYQuanPin
p711
Vzhangzhenya
p712
sVHeadImgUrl
p713
V/cgi-bin/mmwebwx-bin/webwxgeticon?seq=634152632&username=@5d75d4e5a5d62567a70cd125a9011e8ff850f37657e51c70cd7f25ca9900fa8d&skey=@crypt_84c2f365_aeea69fa1143cd9832a4eea0fef6f1de
p714
sVKeyWord
p715
g43
sVProvince
p716
V\u6cb3\u5357
p717
sVPYInitial
p718
VH
p719
sVRemarkName
p720
V\u5f20\u73cd\u4e9a
p721
sVIsOwner
p722
I0
sVSex
p723
I1
sVStarFriend
p724
I0
sVHideInputBarFlag
p725
I0
sVChatRoomId
p726
I0
sVEncryChatRoomId
p727
g43
sVAttrStatus
p728
I100389
sVStatues
p729
I0
stp730
Rp731
I1
bag25
(g29
g30
(dp732
VUserName
p733
V@6616bbd3424ff0b227ff1245a7ba71991f904fbd685137bcec2c627cd7167a62
p734
sVCity
p735
V\u90d1\u5dde
p736
sVSnsFlag
p737
I1
sVDisplayName
p738
g43
sVUniFriend
p739
I0
sVMemberCount
p740
I0
sVOwnerUin
p741
I0
sVMemberList
p742
g41
sVAlias
p743
g43
sVPYQuanPin
p744
Vonlyspecialone
p745
sVSignature
p746
V\u6709\u6ca1\u6709\u8fc7\u7a81\u7136\u5c31\u60f3\u901a\u4e00\u4ef6\u4e8b\u60c5\uff0c\u7136\u540e\u6539\u53d8\u5bf9\u4e00\u4e2a\u4eba\u7684\u770b\u6cd5
p747
sVRemarkPYInitial
p748
VZZP
p749
sVContactFlag
p750
I1
sVUin
p751
I0
sVNickName
p752
Vonly\u3001special one
p753
sVAppAccountFlag
p754
I0
sVVerifyFlag
p755
I0
sVRemarkPYQuanPin
p756
Vzhaozhipeng
p757
sVHeadImgUrl
p758
V/cgi-bin/mmwebwx-bin/webwxgeticon?seq=668101810&username=@6616bbd3424ff0b227ff1245a7ba71991f904fbd685137bcec2c627cd7167a62&skey=@crypt_84c2f365_aeea69fa1143cd9832a4eea0fef6f1de
p759
sVKeyWord
p760
g43
sVProvince
p761
V\u6cb3\u5357
p762
sVPYInitial
p763
VONLYSPECIALONE
p764
sVRemarkName
p765
V\u8d75\u5fd7\u9e4f
p766
sVIsOwner
p767
I0
sVSex
p768
I1
sVStarFriend
p769
I0
sVHideInputBarFlag
p770
I0
sVChatRoomId
p771
I0
sVEncryChatRoomId
p772
g43
sVAttrStatus
p773
I4197
sVStatues
p774
I0
stp775
Rp776
I1
bag25
(g29
g30
(dp777
VUserName
p778
V@c5c34d19e22d3e57edc3518bde91e47b4a7d9b4c93f61fbe01a98d82a3c37ac5
p779
sVCity
p780
g43
sVSnsFlag
p781
I0
sVDisplayName
p782
g43
sVUniFriend
p783
I0
sVMemberCount
p784
I0
sVOwnerUin
p785
I0
sVMemberList
p786
g41
sVAlias
p787
g43
sVPYQuanPin
p788
Vzhuxianli
p789
sVSignature
p790
g43
sVRemarkPYInitial
p791
VM
p792
sVContactFlag
p793
I3
sVUin
p794
I0
sVNickName
p795
V\u6731\u73b0\u4e3d
p796
sVAppAccountFlag
p797
I0
sVVerifyFlag
p798
I0
sVRemarkPYQuanPin
p799
Vma
p800
sVHeadImgUrl
p801
V/cgi-bin/mmwebwx-bin/webwxgeticon?seq=668100517&username=@c5c34d19e22d3e57edc3518bde91e47b4a7d9b4c93f61fbe01a98d82a3c37ac5&skey=@crypt_84c2f365_aeea69fa1143cd9832a4eea0fef6f1de
p802
sVKeyWord
p803
g43
sVProvince
p804
g43
sVPYInitial
p805
VZXL
p806
sVRemarkName
p807
V\u5988
p808
sVIsOwner
p809
I0
sVSex
p810
I0
sVStarFriend
p811
I0
sVHideInputBarFlag
p812
I0
sVChatRoomId
p813
I0
sVEncryChatRoomId
p814
g43
sVAttrStatus
p815
I4133
sVStatues
p816
I0
stp817
Rp818
I1
bag25
(g29
g30
(dp819
VUserName
p820
V@2b124bd9e9ca38fee64a0d04e65ddc82f2bcd9b37ca80958ac5af1336431e8dd
p821
sVCity
p822
g43
sVSnsFlag
p823
I1
sVDisplayName
p824
g43
sVUniFriend
p825
I0
sVMemberCount
p826
I0
sVOwnerUin
p827
I0
sVMemberList
p828
g41
sVAlias
p829
g43
sVPYQuanPin
p830
Vbetterqiu
p831
sVSignature
p832
g43
sVRemarkPYInitial
p833
VSYQ
p834
sVContactFlag
p835
I1
sVUin
p836
I0
sVNickName
p837
Vbetter\u79cb
p838
sVAppAccountFlag
p839
I0
sVVerifyFlag
p840
I0
sVRemarkPYQuanPin
p841
Vshengyuqin
p842
sVHeadImgUrl
p843
V/cgi-bin/mmwebwx-bin/webwxgeticon?seq=668102467&username=@2b124bd9e9ca38fee64a0d04e65ddc82f2bcd9b37ca80958ac5af1336431e8dd&skey=@crypt_84c2f365_aeea69fa1143cd9832a4eea0fef6f1de
p844
sVKeyWord
p845
g43
sVProvince
p846
g43
sVPYInitial
p847
VBETTERQ
p848
sVRemarkName
p849
V\u76db\u7389\u52e4
p850
sVIsOwner
p851
I0
sVSex
p852
I2
sVStarFriend
p853
I0
sVHideInputBarFlag
p854
I0
sVChatRoomId
p855
I0
sVEncryChatRoomId
p856
g43
sVAttrStatus
p857
I4389
sVStatues
p858
I0
stp859
Rp860
I1
bag25
(g29
g30
(dp861
VUserName
p862
V@afe2ce5f973c8b614c3cd15f32293b96e82436c91c41f466e7f0da3e6df3addc
p863
sVCity
p864
g43
sVSnsFlag
p865
I1
sVDisplayName
p866
g43
sVUniFriend
p867
I0
sVMemberCount
p868
I0
sVOwnerUin
p869
I0
sVMemberList
p870
g41
sVAlias
p871
g43
sVPYQuanPin
p872
Vrenxing
p873
sVSignature
p874
g43
sVRemarkPYInitial
p875
VHMJ
p876
sVContactFlag
p877
I1
sVUin
p878
I0
sVNickName
p879
V\u4efb\u6027
p880
sVAppAccountFlag
p881
I0
sVVerifyFlag
p882
I0
sVRemarkPYQuanPin
p883
Vhuangmengjie
p884
sVHeadImgUrl
p885
V/cgi-bin/mmwebwx-bin/webwxgeticon?seq=668103021&username=@afe2ce5f973c8b614c3cd15f32293b96e82436c91c41f466e7f0da3e6df3addc&skey=@crypt_84c2f365_aeea69fa1143cd9832a4eea0fef6f1de
p886
sVKeyWord
p887
g43
sVProvince
p888
g43
sVPYInitial
p889
VRX
p890
sVRemarkName
p891
V\u9ec4\u68a6\u6d01
p892
sVIsOwner
p893
I0
sVSex
p894
I0
sVStarFriend
p895
I0
sVHideInputBarFlag
p896
I0
sVChatRoomId
p897
I0
sVEncryChatRoomId
p898
g43
sVAttrStatus
p899
I4129
sVStatues
p900
I0
stp901
Rp902
I1
bag25
(g29
g30
(dp903
VUserName
p904
V@ed7d24d97cea305e6142f9afba7e1f77d9fa1394ce9da71d7d293f576405a62f
p905
sVCity
p906
V\u5b89\u9633
p907
sVSnsFlag
p908
I1
sVDisplayName
p909
g43
sVUniFriend
p910
I0
sVMemberCount
p911
I0
sVOwnerUin
p912
I0
sVMemberList
p913
g41
sVAlias
p914
g43
sVPYQuanPin
p915
Vlijia
p916
sVSignature
p917
g43
sVRemarkPYInitial
p918
VLJ
p919
sVContactFlag
p920
I1
sVUin
p921
I0
sVNickName
p922
V\u674e\u4f73
p923
sVAppAccountFlag
p924
I0
sVVerifyFlag
p925
I0
sVRemarkPYQuanPin
p926
Vlijia
p927
sVHeadImgUrl
p928
V/cgi-bin/mmwebwx-bin/webwxgeticon?seq=668103406&username=@ed7d24d97cea305e6142f9afba7e1f77d9fa1394ce9da71d7d293f576405a62f&skey=@crypt_84c2f365_aeea69fa1143cd9832a4eea0fef6f1de
p929
sVKeyWord
p930
g43
sVProvince
p931
V\u6cb3\u5357
p932
sVPYInitial
p933
VLJ
p934
sVRemarkName
p935
V\u674e\u4f73
p936
sVIsOwner
p937
I0
sVSex
p938
I2
sVStarFriend
p939
I0
sVHideInputBarFlag
p940
I0
sVChatRoomId
p941
I0
sVEncryChatRoomId
p942
g43
sVAttrStatus
p943
I4197
sVStatues
p944
I0
stp945
Rp946
I1
bag25
(g29
g30
(dp947
VUserName
p948
V@294347783ead7b9b23169150799bfbe5c751342e7cf616045134fe458677f67b
p949
sVCity
p950
V\u90d1\u5dde
p951
sVSnsFlag
p952
I0
sVDisplayName
p953
g43
sVUniFriend
p954
I0
sVMemberCount
p955
I0
sVOwnerUin
p956
I0
sVMemberList
p957
g41
sVAlias
p958
g43
sVPYQuanPin
p959
Vyundebiduan
p960
sVSignature
p961
g43
sVRemarkPYInitial
p962
VLZY
p963
sVContactFlag
p964
I1
sVUin
p965
I0
sVNickName
p966
V\u4e91\u7684\u5f7c\u7aef
p967
sVAppAccountFlag
p968
I0
sVVerifyFlag
p969
I0
sVRemarkPYQuanPin
p970
Vlizeyang
p971
sVHeadImgUrl
p972
V/cgi-bin/mmwebwx-bin/webwxgeticon?seq=668103100&username=@294347783ead7b9b23169150799bfbe5c751342e7cf616045134fe458677f67b&skey=@crypt_84c2f365_aeea69fa1143cd9832a4eea0fef6f1de
p973
sVKeyWord
p974
g43
sVProvince
p975
V\u6cb3\u5357
p976
sVPYInitial
p977
VYDBD
p978
sVRemarkName
p979
V\u674e\u6cfd\u9633
p980
sVIsOwner
p981
I0
sVSex
p982
I1
sVStarFriend
p983
I0
sVHideInputBarFlag
p984
I0
sVChatRoomId
p985
I0
sVEncryChatRoomId
p986
g43
sVAttrStatus
p987
I4197
sVStatues
p988
I0
stp989
Rp990
I1
bag25
(g29
g30
(dp991
VUserName
p992
V@e218ec0c09940b0ba7b956641f53c28ef8f1085c1ecded405080a5131c2cde59
p993
sVCity
p994
V\u90d1\u5dde
p995
sVSnsFlag
p996
I1
sVDisplayName
p997
g43
sVUniFriend
p998
I0
sVMemberCount
p999
I0
sVOwnerUin
p1000
I0
sVMemberList
p1001
g41
sVAlias
p1002
g43
sVPYQuanPin
p1003
Vzhangxiaodi
p1004
sVSignature
p1005
V\u6211\u5c0f\u53ef\u7231\u65e0\u6240\u754f\u60e7
p1006
sVRemarkPYInitial
p1007
g43
sVContactFlag
p1008
I1
sVUin
p1009
I0
sVNickName
p1010
V\u5f20\u6653\u8fea
p1011
sVAppAccountFlag
p1012
I0
sVVerifyFlag
p1013
I0
sVRemarkPYQuanPin
p1014
g43
sVHeadImgUrl
p1015
V/cgi-bin/mmwebwx-bin/webwxgeticon?seq=668103511&username=@e218ec0c09940b0ba7b956641f53c28ef8f1085c1ecded405080a5131c2cde59&skey=@crypt_84c2f365_aeea69fa1143cd9832a4eea0fef6f1de
p1016
sVKeyWord
p1017
g43
sVProvince
p1018
V\u6cb3\u5357
p1019
sVPYInitial
p1020
VZXD
p1021
sVRemarkName
p1022
g43
sVIsOwner
p1023
I0
sVSex
p1024
I2
sVStarFriend
p1025
I0
sVHideInputBarFlag
p1026
I0
sVChatRoomId
p1027
I0
sVEncryChatRoomId
p1028
g43
sVAttrStatus
p1029
I4347
sVStatues
p1030
I0
stp1031
Rp1032
I1
bag25
(g29
g30
(dp1033
VUserName
p1034
V@82b8ba9647fd8e773d6c26f216e145256eb4d609829411f41e6f0bfe448dbe8a
p1035
sVCity
p1036
g43
sVSnsFlag
p1037
I1
sVDisplayName
p1038
g43
sVUniFriend
p1039
I0
sVMemberCount
p1040
I0
sVOwnerUin
p1041
I0
sVMemberList
p1042
g41
sVAlias
p1043
g43
sVPYQuanPin
p1044
Vmiaomiaodidemon
p1045
sVSignature
p1046
g43
sVRemarkPYInitial
p1047
VWYY
p1048
sVContactFlag
p1049
I1
sVUin
p1050
I0
sVNickName
p1051
V\u55b5\u55b5\u6ef4demon
p1052
sVAppAccountFlag
p1053
I0
sVVerifyFlag
p1054
I0
sVRemarkPYQuanPin
p1055
Vwangyiyi
p1056
sVHeadImgUrl
p1057
V/cgi-bin/mmwebwx-bin/webwxgeticon?seq=668100706&username=@82b8ba9647fd8e773d6c26f216e145256eb4d609829411f41e6f0bfe448dbe8a&skey=@crypt_84c2f365_aeea69fa1143cd9832a4eea0fef6f1de
p1058
sVKeyWord
p1059
g43
sVProvince
p1060
g43
sVPYInitial
p1061
VMMDDEMON
p1062
sVRemarkName
p1063
V\u738b\u827a\u4e00
p1064
sVIsOwner
p1065
I0
sVSex
p1066
I0
sVStarFriend
p1067
I0
sVHideInputBarFlag
p1068
I0
sVChatRoomId
p1069
I0
sVEncryChatRoomId
p1070
g43
sVAttrStatus
p1071
I4197
sVStatues
p1072
I0
stp1073
Rp1074
I1
bag25
(g29
g30
(dp1075
VUserName
p1076
V@5aac91a8535f50e0f9e9323186dc57c2
p1077
sVCity
p1078
V\u6d66\u4e1c\u65b0\u533a
p1079
sVSnsFlag
p1080
I49
sVDisplayName
p1081
g43
sVUniFriend
p1082
I0
sVMemberCount
p1083
I0
sVOwnerUin
p1084
I0
sVMemberList
p1085
g41
sVAlias
p1086
g43
sVPYQuanPin
p1087
VVinciChen
p1088
sVSignature
p1089
g43
sVRemarkPYInitial
p1090
g43
sVContactFlag
p1091
I3
sVUin
p1092
I0
sVNickName
p1093
VVinci Chen
p1094
sVAppAccountFlag
p1095
I0
sVVerifyFlag
p1096
I0
sVRemarkPYQuanPin
p1097
g43
sVHeadImgUrl
p1098
V/cgi-bin/mmwebwx-bin/webwxgeticon?seq=668106425&username=@5aac91a8535f50e0f9e9323186dc57c2&skey=@crypt_84c2f365_aeea69fa1143cd9832a4eea0fef6f1de
p1099
sVKeyWord
p1100
Vche
p1101
sVProvince
p1102
V\u4e0a\u6d77
p1103
sVPYInitial
p1104
VVINCICHEN
p1105
sVRemarkName
p1106
g43
sVIsOwner
p1107
I0
sVSex
p1108
I1
sVStarFriend
p1109
I0
sVHideInputBarFlag
p1110
I0
sVChatRoomId
p1111
I0
sVEncryChatRoomId
p1112
g43
sVAttrStatus
p1113
I102439
sVStatues
p1114
I0
stp1115
Rp1116
I1
bag25
(g29
g30
(dp1117
VUserName
p1118
V@ac2c49cfc0fb809c0800a6bc15b31205
p1119
sVCity
p1120
V\u90d1\u5dde
p1121
sVSnsFlag
p1122
I49
sVDisplayName
p1123
g43
sVUniFriend
p1124
I0
sVMemberCount
p1125
I0
sVOwnerUin
p1126
I0
sVMemberList
p1127
g41
sVAlias
p1128
g43
sVPYQuanPin
p1129
Vweixia
p1130
sVSignature
p1131
V\u613f\u6709\u5c81\u6708\u53ef\u56de\u9996\uff0c\u4e14\u4ee5\u6df1\u60c5\u5171\u767d\u5934\u3002
p1132
sVRemarkPYInitial
p1133
g43
sVContactFlag
p1134
I1
sVUin
p1135
I0
sVNickName
p1136
V\u9b4f\u971e
p1137
sVAppAccountFlag
p1138
I0
sVVerifyFlag
p1139
I0
sVRemarkPYQuanPin
p1140
g43
sVHeadImgUrl
p1141
V/cgi-bin/mmwebwx-bin/webwxgeticon?seq=668101608&username=@ac2c49cfc0fb809c0800a6bc15b31205&skey=@crypt_84c2f365_aeea69fa1143cd9832a4eea0fef6f1de
p1142
sVKeyWord
p1143
Vwei
p1144
sVProvince
p1145
V\u6cb3\u5357
p1146
sVPYInitial
p1147
VWX
p1148
sVRemarkName
p1149
g43
sVIsOwner
p1150
I0
sVSex
p1151
I2
sVStarFriend
p1152
I0
sVHideInputBarFlag
p1153
I0
sVChatRoomId
p1154
I0
sVEncryChatRoomId
p1155
g43
sVAttrStatus
p1156
I110695
sVStatues
p1157
I0
stp1158
Rp1159
I1
bag25
(g29
g30
(dp1160
VUserName
p1161
V@4a14b02c6ac7bedf87a97a118eadd90f0ced34878191dbeb0a0fffa91c28a135
p1162
sVCity
p1163
g43
sVSnsFlag
p1164
I1
sVDisplayName
p1165
g43
sVUniFriend
p1166
I0
sVMemberCount
p1167
I0
sVOwnerUin
p1168
I0
sVMemberList
p1169
g41
sVAlias
p1170
g43
sVPYQuanPin
p1171
Vhuicheng
p1172
sVSignature
p1173
g43
sVRemarkPYInitial
p1174
g43
sVContactFlag
p1175
I1
sVUin
p1176
I0
sVNickName
p1177
V\u6167\u8bda
p1178
sVAppAccountFlag
p1179
I0
sVVerifyFlag
p1180
I0
sVRemarkPYQuanPin
p1181
g43
sVHeadImgUrl
p1182
V/cgi-bin/mmwebwx-bin/webwxgeticon?seq=652567143&username=@4a14b02c6ac7bedf87a97a118eadd90f0ced34878191dbeb0a0fffa91c28a135&skey=@crypt_84c2f365_aeea69fa1143cd9832a4eea0fef6f1de
p1183
sVKeyWord
p1184
g43
sVProvince
p1185
g43
sVPYInitial
p1186
VHC
p1187
sVRemarkName
p1188
g43
sVIsOwner
p1189
I0
sVSex
p1190
I0
sVStarFriend
p1191
I0
sVHideInputBarFlag
p1192
I0
sVChatRoomId
p1193
I0
sVEncryChatRoomId
p1194
g43
sVAttrStatus
p1195
I102437
sVStatues
p1196
I0
stp1197
Rp1198
I1
bag25
(g29
g30
(dp1199
VUserName
p1200
V@4d779577dadc0b9785c48badef760d01aaea6020500b437108884f44dbed1eab
p1201
sVCity
p1202
g43
sVSnsFlag
p1203
I1
sVDisplayName
p1204
g43
sVUniFriend
p1205
I0
sVMemberCount
p1206
I0
sVOwnerUin
p1207
I0
sVMemberList
p1208
g41
sVAlias
p1209
g43
sVPYQuanPin
p1210
Vxingzhe
p1211
sVSignature
p1212
V\u65e2\u7136\u9009\u62e9\u4e86\u524d\u65b9\uff0c\u5c31\u53ea\u987e\u98ce\u96e8\u517c\u7a0b
p1213
sVRemarkPYInitial
p1214
VWXH
p1215
sVContactFlag
p1216
I1
sVUin
p1217
I0
sVNickName
p1218
V\u884c\u8005
p1219
sVAppAccountFlag
p1220
I0
sVVerifyFlag
p1221
I0
sVRemarkPYQuanPin
p1222
Vwangxuhui
p1223
sVHeadImgUrl
p1224
V/cgi-bin/mmwebwx-bin/webwxgeticon?seq=668104017&username=@4d779577dadc0b9785c48badef760d01aaea6020500b437108884f44dbed1eab&skey=@crypt_84c2f365_aeea69fa1143cd9832a4eea0fef6f1de
p1225
sVKeyWord
p1226
g43
sVProvince
p1227
g43
sVPYInitial
p1228
VXZ
p1229
sVRemarkName
p1230
V\u738b\u65ed\u8f89
p1231
sVIsOwner
p1232
I0
sVSex
p1233
I1
sVStarFriend
p1234
I0
sVHideInputBarFlag
p1235
I0
sVChatRoomId
p1236
I0
sVEncryChatRoomId
p1237
g43
sVAttrStatus
p1238
I4197
sVStatues
p1239
I0
stp1240
Rp1241
I1
bag25
(g29
g30
(dp1242
VUserName
p1243
V@98431fb91da492115c06700330447b8ec63dcaacd7c5b2bb780a07928530b62a
p1244
sVCity
p1245
V\u5546\u4e18
p1246
sVSnsFlag
p1247
I1
sVDisplayName
p1248
g43
sVUniFriend
p1249
I0
sVMemberCount
p1250
I0
sVOwnerUin
p1251
I0
sVMemberList
p1252
g41
sVAlias
p1253
g43
sVPYQuanPin
p1254
Vwangshuyan
p1255
sVSignature
p1256
V\u6f02\u4eae\u7684\u5973\u4eba\u60ca\u8273\u4e16\u754c\uff0c\u4f1f\u5927\u7684\u5973\u4eba\u6539\u53d8\u4e16\u754c
p1257
sVRemarkPYInitial
p1258
VWSY
p1259
sVContactFlag
p1260
I1
sVUin
p1261
I0
sVNickName
p1262
V\u738b\u4e66\u8273
p1263
sVAppAccountFlag
p1264
I0
sVVerifyFlag
p1265
I0
sVRemarkPYQuanPin
p1266
Vwangshuyan
p1267
sVHeadImgUrl
p1268
V/cgi-bin/mmwebwx-bin/webwxgeticon?seq=668101080&username=@98431fb91da492115c06700330447b8ec63dcaacd7c5b2bb780a07928530b62a&skey=@crypt_84c2f365_aeea69fa1143cd9832a4eea0fef6f1de
p1269
sVKeyWord
p1270
g43
sVProvince
p1271
V\u6cb3\u5357
p1272
sVPYInitial
p1273
VWSY
p1274
sVRemarkName
p1275
V\u738b\u4e66\u8273
p1276
sVIsOwner
p1277
I0
sVSex
p1278
I2
sVStarFriend
p1279
I0
sVHideInputBarFlag
p1280
I0
sVChatRoomId
p1281
I0
sVEncryChatRoomId
p1282
g43
sVAttrStatus
p1283
I136165
sVStatues
p1284
I0
stp1285
Rp1286
I1
bag25
(g29
g30
(dp1287
VUserName
p1288
V@c4907179bdb573f67d1d10cef9ac115446b5bc166fc610bb53208b105206209b
p1289
sVCity
p1290
V\u5468\u53e3
p1291
sVSnsFlag
p1292
I0
sVDisplayName
p1293
g43
sVUniFriend
p1294
I0
sVMemberCount
p1295
I0
sVOwnerUin
p1296
I0
sVMemberList
p1297
g41
sVAlias
p1298
g43
sVPYQuanPin
p1299
Vqiutian
p1300
sVSignature
p1301
V\u6de1\u84dd\u8272\u7684\u5fe7\u90c1\u662f\u5b64\u72ec\u7684\u5fe7\u4f24
p1302
sVRemarkPYInitial
p1303
VGJ
p1304
sVContactFlag
p1305
I1
sVUin
p1306
I0
sVNickName
p1307
V\u79cb\u5929
p1308
sVAppAccountFlag
p1309
I0
sVVerifyFlag
p1310
I0
sVRemarkPYQuanPin
p1311
Vgangjie
p1312
sVHeadImgUrl
p1313
V/cgi-bin/mmwebwx-bin/webwxgeticon?seq=668105508&username=@c4907179bdb573f67d1d10cef9ac115446b5bc166fc610bb53208b105206209b&skey=@crypt_84c2f365_aeea69fa1143cd9832a4eea0fef6f1de
p1314
sVKeyWord
p1315
g43
sVProvince
p1316
V\u6cb3\u5357
p1317
sVPYInitial
p1318
VQT
p1319
sVRemarkName
p1320
V\u521a\u6770
p1321
sVIsOwner
p1322
I0
sVSex
p1323
I1
sVStarFriend
p1324
I0
sVHideInputBarFlag
p1325
I0
sVChatRoomId
p1326
I0
sVEncryChatRoomId
p1327
g43
sVAttrStatus
p1328
I4197
sVStatues
p1329
I0
stp1330
Rp1331
I1
bag25
(g29
g30
(dp1332
VUserName
p1333
V@a064aa0d1db468165f3f50047dfe8e04ad318519f0a456116d812308cfdde179
p1334
sVCity
p1335
V\u65b0\u4e61
p1336
sVSnsFlag
p1337
I1
sVDisplayName
p1338
g43
sVUniFriend
p1339
I0
sVMemberCount
p1340
I0
sVOwnerUin
p1341
I0
sVMemberList
p1342
g41
sVAlias
p1343
g43
sVPYQuanPin
p1344
Vshudou
p1345
sVSignature
p1346
V\u771f\u6b63\u7684\u575a\u6301\u4e0d\u662f\u5728\u6700\u77ed\u7684\u65f6\u95f4\u91cc\u505a\u51b3\u5b9a\u800c\u662f\u5728\u6700\u957f\u7684\u65f6\u95f4\u91cc\u53bb\u884c\u52a8
p1347
sVRemarkPYInitial
p1348
VGCY
p1349
sVContactFlag
p1350
I1
sVUin
p1351
I0
sVNickName
p1352
V\u6811\u8bfb
p1353
sVAppAccountFlag
p1354
I0
sVVerifyFlag
p1355
I0
sVRemarkPYQuanPin
p1356
Vguochenyu
p1357
sVHeadImgUrl
p1358
V/cgi-bin/mmwebwx-bin/webwxgeticon?seq=668107640&username=@a064aa0d1db468165f3f50047dfe8e04ad318519f0a456116d812308cfdde179&skey=@crypt_84c2f365_aeea69fa1143cd9832a4eea0fef6f1de
p1359
sVKeyWord
p1360
g43
sVProvince
p1361
V\u6cb3\u5357
p1362
sVPYInitial
p1363
VSD
p1364
sVRemarkName
p1365
V\u90ed\u6668\u96e8
p1366
sVIsOwner
p1367
I0
sVSex
p1368
I2
sVStarFriend
p1369
I0
sVHideInputBarFlag
p1370
I0
sVChatRoomId
p1371
I0
sVEncryChatRoomId
p1372
g43
sVAttrStatus
p1373
I4285
sVStatues
p1374
I0
stp1375
Rp1376
I1
bag25
(g29
g30
(dp1377
VUserName
p1378
V@eff17f9d8a33d4d6bb01b4f195290a4e
p1379
sVCity
p1380
V\u90d1\u5dde
p1381
sVSnsFlag
p1382
I1
sVDisplayName
p1383
g43
sVUniFriend
p1384
I0
sVMemberCount
p1385
I0
sVOwnerUin
p1386
I0
sVMemberList
p1387
g41
sVAlias
p1388
g43
sVPYQuanPin
p1389
Vhuangwanwei
p1390
sVSignature
p1391
g43
sVRemarkPYInitial
p1392
VHLS
p1393
sVContactFlag
p1394
I3
sVUin
p1395
I0
sVNickName
p1396
V\u9ec4\u4e07\u4f1f
p1397
sVAppAccountFlag
p1398
I0
sVVerifyFlag
p1399
I0
sVRemarkPYQuanPin
p1400
Vhuanglaoshi
p1401
sVHeadImgUrl
p1402
V/cgi-bin/mmwebwx-bin/webwxgeticon?seq=668102670&username=@eff17f9d8a33d4d6bb01b4f195290a4e&skey=@crypt_84c2f365_aeea69fa1143cd9832a4eea0fef6f1de
p1403
sVKeyWord
p1404
Vhua
p1405
sVProvince
p1406
V\u6cb3\u5357
p1407
sVPYInitial
p1408
VHWW
p1409
sVRemarkName
p1410
V\u9ec4\u8001\u5e08
p1411
sVIsOwner
p1412
I0
sVSex
p1413
I1
sVStarFriend
p1414
I0
sVHideInputBarFlag
p1415
I0
sVChatRoomId
p1416
I0
sVEncryChatRoomId
p1417
g43
sVAttrStatus
p1418
I135207
sVStatues
p1419
I0
stp1420
Rp1421
I1
bag25
(g29
g30
(dp1422
VUserName
p1423
V@9a4c3684c9e08bebf47a333c82a31e0c55209372136536f9d313e7d0a2210577
p1424
sVCity
p1425
VSydney
p1426
sVSnsFlag
p1427
I0
sVDisplayName
p1428
g43
sVUniFriend
p1429
I0
sVMemberCount
p1430
I0
sVOwnerUin
p1431
I0
sVMemberList
p1432
g41
sVAlias
p1433
g43
sVPYQuanPin
p1434
VRay
p1435
sVSignature
p1436
g43
sVRemarkPYInitial
p1437
VDM
p1438
sVContactFlag
p1439
I8193
sVUin
p1440
I0
sVNickName
p1441
VRay
p1442
sVAppAccountFlag
p1443
I0
sVVerifyFlag
p1444
I0
sVRemarkPYQuanPin
p1445
Vdameng
p1446
sVHeadImgUrl
p1447
V/cgi-bin/mmwebwx-bin/webwxgeticon?seq=652560868&username=@9a4c3684c9e08bebf47a333c82a31e0c55209372136536f9d313e7d0a2210577&skey=@crypt_84c2f365_aeea69fa1143cd9832a4eea0fef6f1de
p1448
sVKeyWord
p1449
g43
sVProvince
p1450
VNew South Wales
p1451
sVPYInitial
p1452
VRAY
p1453
sVRemarkName
p1454
V\u5927\u731b
p1455
sVIsOwner
p1456
I0
sVSex
p1457
I1
sVStarFriend
p1458
I0
sVHideInputBarFlag
p1459
I0
sVChatRoomId
p1460
I0
sVEncryChatRoomId
p1461
g43
sVAttrStatus
p1462
I102503
sVStatues
p1463
I0
stp1464
Rp1465
I1
bag25
(g29
g30
(dp1466
VUserName
p1467
V@255cdb62cc7671b3937e9a8b253ba68fa028fef296f9d09965a853b1465c8d19
p1468
sVCity
p1469
V\u83cf\u6cfd
p1470
sVSnsFlag
p1471
I17
sVDisplayName
p1472
g43
sVUniFriend
p1473
I0
sVMemberCount
p1474
I0
sVOwnerUin
p1475
I0
sVMemberList
p1476
g41
sVAlias
p1477
g43
sVPYQuanPin
p1478
Vleilei
p1479
sVSignature
p1480
g43
sVRemarkPYInitial
p1481
VMJ
p1482
sVContactFlag
p1483
I65537
sVUin
p1484
I0
sVNickName
p1485
V\u96f7\u96f7
p1486
sVAppAccountFlag
p1487
I0
sVVerifyFlag
p1488
I0
sVRemarkPYQuanPin
p1489
Vmeijie
p1490
sVHeadImgUrl
p1491
V/cgi-bin/mmwebwx-bin/webwxgeticon?seq=668100019&username=@255cdb62cc7671b3937e9a8b253ba68fa028fef296f9d09965a853b1465c8d19&skey=@crypt_84c2f365_aeea69fa1143cd9832a4eea0fef6f1de
p1492
sVKeyWord
p1493
g43
sVProvince
p1494
V\u5c71\u4e1c
p1495
sVPYInitial
p1496
VLL
p1497
sVRemarkName
p1498
V\u7f8e\u59d0
p1499
sVIsOwner
p1500
I0
sVSex
p1501
I2
sVStarFriend
p1502
I0
sVHideInputBarFlag
p1503
I0
sVChatRoomId
p1504
I0
sVEncryChatRoomId
p1505
g43
sVAttrStatus
p1506
I4133
sVStatues
p1507
I0
stp1508
Rp1509
I1
bag25
(g29
g30
(dp1510
VUserName
p1511
V@499053d6ebac4a1f49b5c291f059788b5d51c830861f2c8efd58fb5d4351e701
p1512
sVCity
p1513
V\u90d1\u5dde
p1514
sVSnsFlag
p1515
I17
sVDisplayName
p1516
g43
sVUniFriend
p1517
I0
sVMemberCount
p1518
I0
sVOwnerUin
p1519
I0
sVMemberList
p1520
g41
sVAlias
p1521
g43
sVPYQuanPin
p1522
Validedijiushijiufengqingshu
p1523
sVSignature
p1524
g43
sVRemarkPYInitial
p1525
VLJC
p1526
sVContactFlag
p1527
I1
sVUin
p1528
I0
sVNickName
p1529
V\u963f\u72f8\u7684\u7b2c\u4e5d\u5341\u4e5d\u5c01\u60c5\u4e66
p1530
sVAppAccountFlag
p1531
I0
sVVerifyFlag
p1532
I0
sVRemarkPYQuanPin
p1533
Vliujiacheng
p1534
sVHeadImgUrl
p1535
V/cgi-bin/mmwebwx-bin/webwxgeticon?seq=668104173&username=@499053d6ebac4a1f49b5c291f059788b5d51c830861f2c8efd58fb5d4351e701&skey=@crypt_84c2f365_aeea69fa1143cd9832a4eea0fef6f1de
p1536
sVKeyWord
p1537
g43
sVProvince
p1538
V\u6cb3\u5357
p1539
sVPYInitial
p1540
VALDDJSJFQS
p1541
sVRemarkName
p1542
V\u5218\u5bb6\u6210
p1543
sVIsOwner
p1544
I0
sVSex
p1545
I1
sVStarFriend
p1546
I0
sVHideInputBarFlag
p1547
I0
sVChatRoomId
p1548
I0
sVEncryChatRoomId
p1549
g43
sVAttrStatus
p1550
I4133
sVStatues
p1551
I0
stp1552
Rp1553
I1
bag25
(g29
g30
(dp1554
VUserName
p1555
V@3516e01b26db3d2924c909820608464fa9e60931e006a1b0d6f28e5f54fca0db
p1556
sVCity
p1557
V\u5468\u53e3
p1558
sVSnsFlag
p1559
I1
sVDisplayName
p1560
g43
sVUniFriend
p1561
I0
sVMemberCount
p1562
I0
sVOwnerUin
p1563
I0
sVMemberList
p1564
g41
sVAlias
p1565
g43
sVPYQuanPin
p1566
Vyutian
p1567
sVSignature
p1568
V\u6ca1\u6709\u96c4\u5fc3\u58ee\u5fd7\uff0c\u53ea\u6709\u5e73\u6de1\u4e00\u751f\uff01
p1569
sVRemarkPYInitial
p1570
VDG
p1571
sVContactFlag
p1572
I65537
sVUin
p1573
I0
sVNickName
p1574
V\u96e8\u7530
p1575
sVAppAccountFlag
p1576
I0
sVVerifyFlag
p1577
I0
sVRemarkPYQuanPin
p1578
Vdage
p1579
sVHeadImgUrl
p1580
V/cgi-bin/mmwebwx-bin/webwxgeticon?seq=668117013&username=@3516e01b26db3d2924c909820608464fa9e60931e006a1b0d6f28e5f54fca0db&skey=@crypt_84c2f365_aeea69fa1143cd9832a4eea0fef6f1de
p1581
sVKeyWord
p1582
g43
sVProvince
p1583
V\u6cb3\u5357
p1584
sVPYInitial
p1585
VYT
p1586
sVRemarkName
p1587
V\u5927\u54e5
p1588
sVIsOwner
p1589
I0
sVSex
p1590
I1
sVStarFriend
p1591
I0
sVHideInputBarFlag
p1592
I0
sVChatRoomId
p1593
I0
sVEncryChatRoomId
p1594
g43
sVAttrStatus
p1595
I16781413
sVStatues
p1596
I0
stp1597
Rp1598
I1
bag25
(g29
g30
(dp1599
VUserName
p1600
V@d238d55a80aa4b563e7e70603826f723ca6cef8c7dfc6e73e7ddb17041624991
p1601
sVCity
p1602
g43
sVSnsFlag
p1603
I1
sVDisplayName
p1604
g43
sVUniFriend
p1605
I0
sVMemberCount
p1606
I0
sVOwnerUin
p1607
I0
sVMemberList
p1608
g41
sVAlias
p1609
g43
sVPYQuanPin
p1610
VCat
p1611
sVSignature
p1612
g43
sVRemarkPYInitial
p1613
VCXY
p1614
sVContactFlag
p1615
I3
sVUin
p1616
I0
sVNickName
p1617
VCat
p1618
sVAppAccountFlag
p1619
I0
sVVerifyFlag
p1620
I0
sVRemarkPYQuanPin
p1621
Vcaoxinyue
p1622
sVHeadImgUrl
p1623
V/cgi-bin/mmwebwx-bin/webwxgeticon?seq=668108650&username=@d238d55a80aa4b563e7e70603826f723ca6cef8c7dfc6e73e7ddb17041624991&skey=@crypt_84c2f365_aeea69fa1143cd9832a4eea0fef6f1de
p1624
sVKeyWord
p1625
g43
sVProvince
p1626
g43
sVPYInitial
p1627
VCAT
p1628
sVRemarkName
p1629
V\u66f9\u65b0\u6708
p1630
sVIsOwner
p1631
I0
sVSex
p1632
I1
sVStarFriend
p1633
I0
sVHideInputBarFlag
p1634
I0
sVChatRoomId
p1635
I0
sVEncryChatRoomId
p1636
g43
sVAttrStatus
p1637
I135269
sVStatues
p1638
I0
stp1639
Rp1640
I1
bag25
(g29
g30
(dp1641
VUserName
p1642
V@926515070fcc1ecc9c94cf01701e280c081dd303f9a006557c4f7bc8e5915544
p1643
sVCity
p1644
V\u7126\u4f5c
p1645
sVSnsFlag
p1646
I1
sVDisplayName
p1647
g43
sVUniFriend
p1648
I0
sVMemberCount
p1649
I0
sVOwnerUin
p1650
I0
sVMemberList
p1651
g41
sVAlias
p1652
g43
sVPYQuanPin
p1653
VNone
p1654
sVSignature
p1655
VNone
p1656
sVRemarkPYInitial
p1657
VELXC
p1658
sVContactFlag
p1659
I1
sVUin
p1660
I0
sVNickName
p1661
VNone
p1662
sVAppAccountFlag
p1663
I0
sVVerifyFlag
p1664
I0
sVRemarkPYQuanPin
p1665
Verleixuechang
p1666
sVHeadImgUrl
p1667
V/cgi-bin/mmwebwx-bin/webwxgeticon?seq=668100396&username=@926515070fcc1ecc9c94cf01701e280c081dd303f9a006557c4f7bc8e5915544&skey=@crypt_84c2f365_aeea69fa1143cd9832a4eea0fef6f1de
p1668
sVKeyWord
p1669
g43
sVProvince
p1670
V\u6cb3\u5357
p1671
sVPYInitial
p1672
VNONE
p1673
sVRemarkName
p1674
V\u4e8c\u78ca\u5b66\u957f
p1675
sVIsOwner
p1676
I0
sVSex
p1677
I1
sVStarFriend
p1678
I0
sVHideInputBarFlag
p1679
I0
sVChatRoomId
p1680
I0
sVEncryChatRoomId
p1681
g43
sVAttrStatus
p1682
I102501
sVStatues
p1683
I0
stp1684
Rp1685
I1
bag25
(g29
g30
(dp1686
VUserName
p1687
V@fb174147344ee7f9020180c99ec2e0c31f82ac58e6b3176f70fcec8f34a8e5aa
p1688
sVCity
p1689
V\u90d1\u5dde
p1690
sVSnsFlag
p1691
I1
sVDisplayName
p1692
g43
sVUniFriend
p1693
I0
sVMemberCount
p1694
I0
sVOwnerUin
p1695
I0
sVMemberList
p1696
g41
sVAlias
p1697
g43
sVPYQuanPin
p1698
Vwoshiwenroutitieyoujizhidexiepinga?
p1699
sVSignature
p1700
g43
sVRemarkPYInitial
p1701
VXPP
p1702
sVContactFlag
p1703
I1
sVUin
p1704
I0
sVNickName
p1705
V\u6211\u662f\u6e29\u67d4\u4f53\u8d34\u53c8\u673a\u667a\u7684\u8c22\u840d\u554a\U0001f31d\u3002
p1706
sVAppAccountFlag
p1707
I0
sVVerifyFlag
p1708
I0
sVRemarkPYQuanPin
p1709
Vxiepingping
p1710
sVHeadImgUrl
p1711
V/cgi-bin/mmwebwx-bin/webwxgeticon?seq=668101273&username=@fb174147344ee7f9020180c99ec2e0c31f82ac58e6b3176f70fcec8f34a8e5aa&skey=@crypt_84c2f365_aeea69fa1143cd9832a4eea0fef6f1de
p1712
sVKeyWord
p1713
g43
sVProvince
p1714
V\u6cb3\u5357
p1715
sVPYInitial
p1716
VWSWRTTYJZDXPA?
p1717
sVRemarkName
p1718
V\u8c22\u840d\u840d
p1719
sVIsOwner
p1720
I0
sVSex
p1721
I2
sVStarFriend
p1722
I0
sVHideInputBarFlag
p1723
I0
sVChatRoomId
p1724
I0
sVEncryChatRoomId
p1725
g43
sVAttrStatus
p1726
I104549
sVStatues
p1727
I0
stp1728
Rp1729
I1
bag25
(g29
g30
(dp1730
VUserName
p1731
V@5adbc3e148626ddc1c221bd6cf3e005611df4febf9fb829df17fd50ed9e18e01
p1732
sVCity
p1733
V\u90d1\u5dde
p1734
sVSnsFlag
p1735
I0
sVDisplayName
p1736
g43
sVUniFriend
p1737
I0
sVMemberCount
p1738
I0
sVOwnerUin
p1739
I0
sVMemberList
p1740
g41
sVAlias
p1741
g43
sVPYQuanPin
p1742
g632
sVSignature
p1743
VThere's only one United
p1744
sVRemarkPYInitial
p1745
VWB
p1746
sVContactFlag
p1747
I3
sVUin
p1748
I0
sVNickName
p1749
g632
sVAppAccountFlag
p1750
I0
sVVerifyFlag
p1751
I0
sVRemarkPYQuanPin
p1752
Vwenbo
p1753
sVHeadImgUrl
p1754
V/cgi-bin/mmwebwx-bin/webwxgeticon?seq=676010396&username=@5adbc3e148626ddc1c221bd6cf3e005611df4febf9fb829df17fd50ed9e18e01&skey=@crypt_84c2f365_aeea69fa1143cd9832a4eea0fef6f1de
p1755
sVKeyWord
p1756
g43
sVProvince
p1757
V\u6cb3\u5357
p1758
sVPYInitial
p1759
g632
sVRemarkName
p1760
V\u6587\u535a
p1761
sVIsOwner
p1762
I0
sVSex
p1763
I1
sVStarFriend
p1764
I0
sVHideInputBarFlag
p1765
I0
sVChatRoomId
p1766
I0
sVEncryChatRoomId
p1767
g43
sVAttrStatus
p1768
I137573
sVStatues
p1769
I0
stp1770
Rp1771
I1
bag25
(g29
g30
(dp1772
VUserName
p1773
V@a4e7d010d3b62a33c3d2a600e253cc96dd145df7b236adfde059f6ec5f26b536
p1774
sVCity
p1775
g43
sVSnsFlag
p1776
I17
sVDisplayName
p1777
g43
sVUniFriend
p1778
I0
sVMemberCount
p1779
I0
sVOwnerUin
p1780
I0
sVMemberList
p1781
g41
sVAlias
p1782
g43
sVPYQuanPin
p1783
Vyuanfang
p1784
sVSignature
p1785
V\u4e16\u754c\u4e0a\u6700\u5927\u7684\u8c0e\u8a00\u5c31\u662f\u4f60\u4e0d\u884c\u3002
p1786
sVRemarkPYInitial
p1787
VWXY
p1788
sVContactFlag
p1789
I65537
sVUin
p1790
I0
sVNickName
p1791
V\u8fdc\u65b9
p1792
sVAppAccountFlag
p1793
I0
sVVerifyFlag
p1794
I0
sVRemarkPYQuanPin
p1795
Vwenxiaoyan
p1796
sVHeadImgUrl
p1797
V/cgi-bin/mmwebwx-bin/webwxgeticon?seq=668104883&username=@a4e7d010d3b62a33c3d2a600e253cc96dd145df7b236adfde059f6ec5f26b536&skey=@crypt_84c2f365_aeea69fa1143cd9832a4eea0fef6f1de
p1798
sVKeyWord
p1799
g43
sVProvince
p1800
g43
sVPYInitial
p1801
VYF
p1802
sVRemarkName
p1803
V\u6e29\u6653\u71d5
p1804
sVIsOwner
p1805
I0
sVSex
p1806
I2
sVStarFriend
p1807
I0
sVHideInputBarFlag
p1808
I0
sVChatRoomId
p1809
I0
sVEncryChatRoomId
p1810
g43
sVAttrStatus
p1811
I69665
sVStatues
p1812
I0
stp1813
Rp1814
I1
bag25
(g29
g30
(dp1815
VUserName
p1816
V@d132276829269a86452d07c2c67d87c3569050dfbd8be4f98f721b4b051da96e
p1817
sVCity
p1818
V\u90d1\u5dde
p1819
sVSnsFlag
p1820
I49
sVDisplayName
p1821
g43
sVUniFriend
p1822
I0
sVMemberCount
p1823
I0
sVOwnerUin
p1824
I0
sVMemberList
p1825
g41
sVAlias
p1826
g43
sVPYQuanPin
p1827
Vdenglujuan
p1828
sVSignature
p1829
g43
sVRemarkPYInitial
p1830
VDLS
p1831
sVContactFlag
p1832
I3
sVUin
p1833
I0
sVNickName
p1834
V\u9093\u7490\u5a1f
p1835
sVAppAccountFlag
p1836
I0
sVVerifyFlag
p1837
I0
sVRemarkPYQuanPin
p1838
Vdenglaoshi
p1839
sVHeadImgUrl
p1840
V/cgi-bin/mmwebwx-bin/webwxgeticon?seq=668106263&username=@d132276829269a86452d07c2c67d87c3569050dfbd8be4f98f721b4b051da96e&skey=@crypt_84c2f365_aeea69fa1143cd9832a4eea0fef6f1de
p1841
sVKeyWord
p1842
g43
sVProvince
p1843
V\u6cb3\u5357
p1844
sVPYInitial
p1845
VDLJ
p1846
sVRemarkName
p1847
V\u9093\u8001\u5e08
p1848
sVIsOwner
p1849
I0
sVSex
p1850
I0
sVStarFriend
p1851
I0
sVHideInputBarFlag
p1852
I0
sVChatRoomId
p1853
I0
sVEncryChatRoomId
p1854
g43
sVAttrStatus
p1855
I109669
sVStatues
p1856
I0
stp1857
Rp1858
I1
bag25
(g29
g30
(dp1859
VUserName
p1860
V@dc620dca14a4b3079cc648a0cb5909e166597f5345d20c5b200d058d016e6fc8
p1861
sVCity
p1862
V\u5468\u53e3
p1863
sVSnsFlag
p1864
I1
sVDisplayName
p1865
g43
sVUniFriend
p1866
I0
sVMemberCount
p1867
I0
sVOwnerUin
p1868
I0
sVMemberList
p1869
g41
sVAlias
p1870
g43
sVPYQuanPin
p1871
Vcaihong
p1872
sVSignature
p1873
V\u8fd9\u4e00\u751f\uff0c\u8fd8\u8981\u7ecf\u5386\u591a\u5c11\u6b21\u76f8\u805a\u4e0e\u79bb\u522b
p1874
sVRemarkPYInitial
p1875
VXX
p1876
sVContactFlag
p1877
I1
sVUin
p1878
I0
sVNickName
p1879
V\u5f69\u8679
p1880
sVAppAccountFlag
p1881
I0
sVVerifyFlag
p1882
I0
sVRemarkPYQuanPin
p1883
Vxiaoxiao
p1884
sVHeadImgUrl
p1885
V/cgi-bin/mmwebwx-bin/webwxgeticon?seq=676012253&username=@dc620dca14a4b3079cc648a0cb5909e166597f5345d20c5b200d058d016e6fc8&skey=@crypt_84c2f365_aeea69fa1143cd9832a4eea0fef6f1de
p1886
sVKeyWord
p1887
g43
sVProvince
p1888
V\u6cb3\u5357
p1889
sVPYInitial
p1890
VCH
p1891
sVRemarkName
p1892
V\u7b11\u7b11
p1893
sVIsOwner
p1894
I0
sVSex
p1895
I2
sVStarFriend
p1896
I0
sVHideInputBarFlag
p1897
I0
sVChatRoomId
p1898
I0
sVEncryChatRoomId
p1899
g43
sVAttrStatus
p1900
I102501
sVStatues
p1901
I0
stp1902
Rp1903
I1
bag25
(g29
g30
(dp1904
VUserName
p1905
V@cc51358a6f4ced536310bb53dd0aa3c2ca71692602ca44683d13da07edad32d6
p1906
sVCity
p1907
V\u65b0\u4e61
p1908
sVSnsFlag
p1909
I1
sVDisplayName
p1910
g43
sVUniFriend
p1911
I0
sVMemberCount
p1912
I0
sVOwnerUin
p1913
I0
sVMemberList
p1914
g41
sVAlias
p1915
g43
sVPYQuanPin
p1916
Vmuyu
p1917
sVSignature
p1918
V\u6362\u5fae\u4fe1\u4e86\uff0c\u8054\u7cfb\u6211\u7684\u52a0LJ21-05
p1919
sVRemarkPYInitial
p1920
VLJ
p1921
sVContactFlag
p1922
I65537
sVUin
p1923
I0
sVNickName
p1924
V\u6728\u9c7c
p1925
sVAppAccountFlag
p1926
I0
sVVerifyFlag
p1927
I0
sVRemarkPYQuanPin
p1928
Vliujun
p1929
sVHeadImgUrl
p1930
V/cgi-bin/mmwebwx-bin/webwxgeticon?seq=676012686&username=@cc51358a6f4ced536310bb53dd0aa3c2ca71692602ca44683d13da07edad32d6&skey=@crypt_84c2f365_aeea69fa1143cd9832a4eea0fef6f1de
p1931
sVKeyWord
p1932
g43
sVProvince
p1933
V\u6cb3\u5357
p1934
sVPYInitial
p1935
VMY
p1936
sVRemarkName
p1937
V\u5218\u4fca
p1938
sVIsOwner
p1939
I0
sVSex
p1940
I2
sVStarFriend
p1941
I0
sVHideInputBarFlag
p1942
I0
sVChatRoomId
p1943
I0
sVEncryChatRoomId
p1944
g43
sVAttrStatus
p1945
I102501
sVStatues
p1946
I0
stp1947
Rp1948
I1
bag25
(g29
g30
(dp1949
VUserName
p1950
V@44b74f408564aa4264564890189518917f8527a338eb7b207e9e41c465f554d5
p1951
sVCity
p1952
V\u5468\u53e3
p1953
sVSnsFlag
p1954
I49
sVDisplayName
p1955
g43
sVUniFriend
p1956
I0
sVMemberCount
p1957
I0
sVOwnerUin
p1958
I0
sVMemberList
p1959
g41
sVAlias
p1960
g43
sVPYQuanPin
p1961
VfanFANspanclassemojiemoji1f343span
p1962
sVSignature
p1963
g43
sVRemarkPYInitial
p1964
VGF
p1965
sVContactFlag
p1966
I1
sVUin
p1967
I0
sVNickName
p1968
V\u7e41FAN\U0001f343
p1969
sVAppAccountFlag
p1970
I0
sVVerifyFlag
p1971
I0
sVRemarkPYQuanPin
p1972
Vgaofan
p1973
sVHeadImgUrl
p1974
V/cgi-bin/mmwebwx-bin/webwxgeticon?seq=676013035&username=@44b74f408564aa4264564890189518917f8527a338eb7b207e9e41c465f554d5&skey=@crypt_84c2f365_aeea69fa1143cd9832a4eea0fef6f1de
p1975
sVKeyWord
p1976
g43
sVProvince
p1977
V\u6cb3\u5357
p1978
sVPYInitial
p1979
VFFANSPANCLASSEMOJIEMOJI1F343SPAN
p1980
sVRemarkName
p1981
V\u9ad8\u51e1
p1982
sVIsOwner
p1983
I0
sVSex
p1984
I2
sVStarFriend
p1985
I0
sVHideInputBarFlag
p1986
I0
sVChatRoomId
p1987
I0
sVEncryChatRoomId
p1988
g43
sVAttrStatus
p1989
I99431
sVStatues
p1990
I0
stp1991
Rp1992
I1
bag25
(g29
g30
(dp1993
VUserName
p1994
V@f45f5853a5c875606008601c24b0f96fc33ebcb6c71eb73d252ea24e1cf1dfc7
p1995
sVCity
p1996
V\u5468\u53e3
p1997
sVSnsFlag
p1998
I1
sVDisplayName
p1999
g43
sVUniFriend
p2000
I0
sVMemberCount
p2001
I0
sVOwnerUin
p2002
I0
sVMemberList
p2003
g41
sVAlias
p2004
g43
sVPYQuanPin
p2005
Vhanjunbo
p2006
sVSignature
p2007
g43
sVRemarkPYInitial
p2008
VHJB
p2009
sVContactFlag
p2010
I1
sVUin
p2011
I0
sVNickName
p2012
V\u97e9\u4fca\u6ce2
p2013
sVAppAccountFlag
p2014
I0
sVVerifyFlag
p2015
I0
sVRemarkPYQuanPin
p2016
Vhanjunbo
p2017
sVHeadImgUrl
p2018
V/cgi-bin/mmwebwx-bin/webwxgeticon?seq=648753017&username=@f45f5853a5c875606008601c24b0f96fc33ebcb6c71eb73d252ea24e1cf1dfc7&skey=@crypt_84c2f365_aeea69fa1143cd9832a4eea0fef6f1de
p2019
sVKeyWord
p2020
g43
sVProvince
p2021
V\u6cb3\u5357
p2022
sVPYInitial
p2023
VHJB
p2024
sVRemarkName
p2025
V\u97e9\u4fca\u6ce2
p2026
sVIsOwner
p2027
I0
sVSex
p2028
I1
sVStarFriend
p2029
I0
sVHideInputBarFlag
p2030
I0
sVChatRoomId
p2031
I0
sVEncryChatRoomId
p2032
g43
sVAttrStatus
p2033
I4197
sVStatues
p2034
I0
stp2035
Rp2036
I1
bag25
(g29
g30
(dp2037
VUserName
p2038
V@cd7b8a3c090d24ea419ed89d405e36af
p2039
sVCity
p2040
V\u897f\u5b89
p2041
sVSnsFlag
p2042
I17
sVDisplayName
p2043
g43
sVUniFriend
p2044
I0
sVMemberCount
p2045
I0
sVOwnerUin
p2046
I0
sVMemberList
p2047
g41
sVAlias
p2048
g43
sVPYQuanPin
p2049
Vjianyan
p2050
sVSignature
p2051
V\u5403\u996d\u788e\u89c9\u6253<span class="emoji emoji2716"></span> <span class="emoji emoji2716"></span>
p2052
sVRemarkPYInitial
p2053
VMQY
p2054
sVContactFlag
p2055
I1
sVUin
p2056
I0
sVNickName
p2057
V\u7b3a\u8a00
p2058
sVAppAccountFlag
p2059
I0
sVVerifyFlag
p2060
I0
sVRemarkPYQuanPin
p2061
Vmengqingyao
p2062
sVHeadImgUrl
p2063
V/cgi-bin/mmwebwx-bin/webwxgeticon?seq=668108495&username=@cd7b8a3c090d24ea419ed89d405e36af&skey=@crypt_84c2f365_aeea69fa1143cd9832a4eea0fef6f1de
p2064
sVKeyWord
p2065
Vsww
p2066
sVProvince
p2067
V\u9655\u897f
p2068
sVPYInitial
p2069
VJY
p2070
sVRemarkName
p2071
V\u5b5f\u5e86\u5c27
p2072
sVIsOwner
p2073
I0
sVSex
p2074
I1
sVStarFriend
p2075
I0
sVHideInputBarFlag
p2076
I0
sVChatRoomId
p2077
I0
sVEncryChatRoomId
p2078
g43
sVAttrStatus
p2079
I4135
sVStatues
p2080
I0
stp2081
Rp2082
I1
bag25
(g29
g30
(dp2083
VUserName
p2084
V@39f79a976089b992f0c93157af107894f821056fdf14a3395d3ecca2ac172760
p2085
sVCity
p2086
g43
sVSnsFlag
p2087
I1
sVDisplayName
p2088
g43
sVUniFriend
p2089
I0
sVMemberCount
p2090
I0
sVOwnerUin
p2091
I0
sVMemberList
p2092
g41
sVAlias
p2093
g43
sVPYQuanPin
p2094
Vshuangzixing
p2095
sVSignature
p2096
V\u5438\u5f15\u5bf9\u65b9\uff0c\u4e0d\u5206\u79bb
p2097
sVRemarkPYInitial
p2098
g43
sVContactFlag
p2099
I65537
sVUin
p2100
I0
sVNickName
p2101
V\u53cc\u5b50\u661f
p2102
sVAppAccountFlag
p2103
I0
sVVerifyFlag
p2104
I0
sVRemarkPYQuanPin
p2105
g43
sVHeadImgUrl
p2106
V/cgi-bin/mmwebwx-bin/webwxgeticon?seq=668105255&username=@39f79a976089b992f0c93157af107894f821056fdf14a3395d3ecca2ac172760&skey=@crypt_84c2f365_aeea69fa1143cd9832a4eea0fef6f1de
p2107
sVKeyWord
p2108
g43
sVProvince
p2109
V\u6e56\u5317
p2110
sVPYInitial
p2111
VSZX
p2112
sVRemarkName
p2113
g43
sVIsOwner
p2114
I0
sVSex
p2115
I2
sVStarFriend
p2116
I0
sVHideInputBarFlag
p2117
I0
sVChatRoomId
p2118
I0
sVEncryChatRoomId
p2119
g43
sVAttrStatus
p2120
I16781409
sVStatues
p2121
I0
stp2122
Rp2123
I1
bag25
(g29
g30
(dp2124
VUserName
p2125
V@61cd2d32b34b666165510acdfbb94d78d98f43c22932599db1f4e3719899795f
p2126
sVCity
p2127
g43
sVSnsFlag
p2128
I0
sVDisplayName
p2129
g43
sVUniFriend
p2130
I0
sVMemberCount
p2131
I0
sVOwnerUin
p2132
I0
sVMemberList
p2133
g41
sVAlias
p2134
g43
sVPYQuanPin
p2135
Vchihuocheng
p2136
sVSignature
p2137
g43
sVRemarkPYInitial
p2138
VCRB
p2139
sVContactFlag
p2140
I1
sVUin
p2141
I0
sVNickName
p2142
V\u5403\u8d27\u7a0b
p2143
sVAppAccountFlag
p2144
I0
sVVerifyFlag
p2145
I0
sVRemarkPYQuanPin
p2146
Vchengrubo
p2147
sVHeadImgUrl
p2148
V/cgi-bin/mmwebwx-bin/webwxgeticon?seq=652569563&username=@61cd2d32b34b666165510acdfbb94d78d98f43c22932599db1f4e3719899795f&skey=@crypt_84c2f365_aeea69fa1143cd9832a4eea0fef6f1de
p2149
sVKeyWord
p2150
g43
sVProvince
p2151
g43
sVPYInitial
p2152
VCHC
p2153
sVRemarkName
p2154
V\u7a0b\u5112\u535a
p2155
sVIsOwner
p2156
I0
sVSex
p2157
I0
sVStarFriend
p2158
I0
sVHideInputBarFlag
p2159
I0
sVChatRoomId
p2160
I0
sVEncryChatRoomId
p2161
g43
sVAttrStatus
p2162
I4133
sVStatues
p2163
I0
stp2164
Rp2165
I1
bag25
(g29
g30
(dp2166
VUserName
p2167
V@d8d82b1c11789c21baf4d29e290fece1ceaf1b59763e40fdd2eeb2d9d0e9e911
p2168
sVCity
p2169
V\u7126\u4f5c
p2170
sVSnsFlag
p2171
I1
sVDisplayName
p2172
g43
sVUniFriend
p2173
I0
sVMemberCount
p2174
I0
sVOwnerUin
p2175
I0
sVMemberList
p2176
g41
sVAlias
p2177
g43
sVPYQuanPin
p2178
Vleilu??
p2179
sVSignature
p2180
V\u592a\u9633\u867d\u8fdc\uff0c\u4f46\u5fc5\u6709\u592a\u9633
p2181
sVRemarkPYInitial
p2182
VLJL
p2183
sVContactFlag
p2184
I1
sVUin
p2185
I0
sVNickName
p2186
Vleilu\U0001f3c5\U0001f3c5
p2187
sVAppAccountFlag
p2188
I0
sVVerifyFlag
p2189
I0
sVRemarkPYQuanPin
p2190
Vleijialing
p2191
sVHeadImgUrl
p2192
V/cgi-bin/mmwebwx-bin/webwxgeticon?seq=676013270&username=@d8d82b1c11789c21baf4d29e290fece1ceaf1b59763e40fdd2eeb2d9d0e9e911&skey=@crypt_84c2f365_aeea69fa1143cd9832a4eea0fef6f1de
p2193
sVKeyWord
p2194
g43
sVProvince
p2195
V\u6cb3\u5357
p2196
sVPYInitial
p2197
VLEILU??
p2198
sVRemarkName
p2199
V\u96f7\u4f73\u7075
p2200
sVIsOwner
p2201
I0
sVSex
p2202
I2
sVStarFriend
p2203
I0
sVHideInputBarFlag
p2204
I0
sVChatRoomId
p2205
I0
sVEncryChatRoomId
p2206
g43
sVAttrStatus
p2207
I104549
sVStatues
p2208
I0
stp2209
Rp2210
I1
bag25
(g29
g30
(dp2211
VUserName
p2212
V@5570a0a7134d8dc354e917dbfb19147d80661a4ff2b0ffc97b7b1056b8f4d3a2
p2213
sVCity
p2214
V\u5468\u53e3
p2215
sVSnsFlag
p2216
I1
sVDisplayName
p2217
g43
sVUniFriend
p2218
I0
sVMemberCount
p2219
I0
sVOwnerUin
p2220
I0
sVMemberList
p2221
g41
sVAlias
p2222
g43
sVPYQuanPin
p2223
Vjiandan
p2224
sVSignature
p2225
g43
sVRemarkPYInitial
p2226
VQY
p2227
sVContactFlag
p2228
I65537
sVUin
p2229
I0
sVNickName
p2230
V\u7b80\u5355
p2231
sVAppAccountFlag
p2232
I0
sVVerifyFlag
p2233
I0
sVRemarkPYQuanPin
p2234
Vqiuyan
p2235
sVHeadImgUrl
p2236
V/cgi-bin/mmwebwx-bin/webwxgeticon?seq=676013961&username=@5570a0a7134d8dc354e917dbfb19147d80661a4ff2b0ffc97b7b1056b8f4d3a2&skey=@crypt_84c2f365_aeea69fa1143cd9832a4eea0fef6f1de
p2237
sVKeyWord
p2238
g43
sVProvince
p2239
V\u6cb3\u5357
p2240
sVPYInitial
p2241
VJD
p2242
sVRemarkName
p2243
V\u79cb\u8273
p2244
sVIsOwner
p2245
I0
sVSex
p2246
I2
sVStarFriend
p2247
I0
sVHideInputBarFlag
p2248
I0
sVChatRoomId
p2249
I0
sVEncryChatRoomId
p2250
g43
sVAttrStatus
p2251
I4197
sVStatues
p2252
I0
stp2253
Rp2254
I1
bag25
(g29
g30
(dp2255
VUserName
p2256
V@55990c797e5fc54e357bfc45c4e1aa3091b8b8aa33a29fec4f995593787552fe
p2257
sVCity
p2258
V\u90d1\u5dde
p2259
sVSnsFlag
p2260
I1
sVDisplayName
p2261
g43
sVUniFriend
p2262
I0
sVMemberCount
p2263
I0
sVOwnerUin
p2264
I0
sVMemberList
p2265
g41
sVAlias
p2266
g43
sVPYQuanPin
p2267
Vspanclassemojiemoji1f33fspanspanclassemojiemoji1f33fspanspanclassemojiemoji1f33fspan
p2268
sVSignature
p2269
g43
sVRemarkPYInitial
p2270
VZHL
p2271
sVContactFlag
p2272
I1
sVUin
p2273
I0
sVNickName
p2274
V\U0001f33f\U0001f33f\U0001f33f
p2275
sVAppAccountFlag
p2276
I0
sVVerifyFlag
p2277
I0
sVRemarkPYQuanPin
p2278
Vzhanghongli
p2279
sVHeadImgUrl
p2280
V/cgi-bin/mmwebwx-bin/webwxgeticon?seq=676013971&username=@55990c797e5fc54e357bfc45c4e1aa3091b8b8aa33a29fec4f995593787552fe&skey=@crypt_84c2f365_aeea69fa1143cd9832a4eea0fef6f1de
p2281
sVKeyWord
p2282
g43
sVProvince
p2283
V\u6cb3\u5357
p2284
sVPYInitial
p2285
VSPANCLASSEMOJIEMOJI1F33FSPANSPANCLASSEMOJIEMOJI1F33FSPANSPANCLASSEMOJIEMOJI1F33FSPAN
p2286
sVRemarkName
p2287
V\u5f20\u7ea2\u4e3d
p2288
sVIsOwner
p2289
I0
sVSex
p2290
I2
sVStarFriend
p2291
I0
sVHideInputBarFlag
p2292
I0
sVChatRoomId
p2293
I0
sVEncryChatRoomId
p2294
g43
sVAttrStatus
p2295
I233573
sVStatues
p2296
I0
stp2297
Rp2298
I1
bag25
(g29
g30
(dp2299
VUserName
p2300
V@fd8b23c54f230fca60adcaa12e5776c522ec09b1f3acf38d0e49495d8c11c995
p2301
sVCity
p2302
V\u5468\u53e3
p2303
sVSnsFlag
p2304
I1
sVDisplayName
p2305
g43
sVUniFriend
p2306
I0
sVMemberCount
p2307
I0
sVOwnerUin
p2308
I0
sVMemberList
p2309
g41
sVAlias
p2310
g43
sVPYQuanPin
p2311
Vruntu
p2312
sVSignature
p2313
g43
sVRemarkPYInitial
p2314
VXNJ
p2315
sVContactFlag
p2316
I1
sVUin
p2317
I0
sVNickName
p2318
V\u95f0\u571f\uff0c
p2319
sVAppAccountFlag
p2320
I0
sVVerifyFlag
p2321
I0
sVRemarkPYQuanPin
p2322
Vxiaonanjie
p2323
sVHeadImgUrl
p2324
V/cgi-bin/mmwebwx-bin/webwxgeticon?seq=652567217&username=@fd8b23c54f230fca60adcaa12e5776c522ec09b1f3acf38d0e49495d8c11c995&skey=@crypt_84c2f365_aeea69fa1143cd9832a4eea0fef6f1de
p2325
sVKeyWord
p2326
g43
sVProvince
p2327
V\u6cb3\u5357
p2328
sVPYInitial
p2329
VRT
p2330
sVRemarkName
p2331
V\u6653\u6960\u59d0
p2332
sVIsOwner
p2333
I0
sVSex
p2334
I2
sVStarFriend
p2335
I0
sVHideInputBarFlag
p2336
I0
sVChatRoomId
p2337
I0
sVEncryChatRoomId
p2338
g43
sVAttrStatus
p2339
I104805
sVStatues
p2340
I0
stp2341
Rp2342
I1
bag25
(g29
g30
(dp2343
VUserName
p2344
V@8426554f590e7c0cf399e49d9ea63d2c3e0b2c19dc81df897428b69a66a68497
p2345
sVCity
p2346
g43
sVSnsFlag
p2347
I1
sVDisplayName
p2348
g43
sVUniFriend
p2349
I0
sVMemberCount
p2350
I0
sVOwnerUin
p2351
I0
sVMemberList
p2352
g41
sVAlias
p2353
g43
sVPYQuanPin
p2354
Vwangjing
p2355
sVSignature
p2356
g43
sVRemarkPYInitial
p2357
VWJJ
p2358
sVContactFlag
p2359
I1
sVUin
p2360
I0
sVNickName
p2361
V\u738b\u4eac
p2362
sVAppAccountFlag
p2363
I0
sVVerifyFlag
p2364
I0
sVRemarkPYQuanPin
p2365
Vwangjingjing
p2366
sVHeadImgUrl
p2367
V/cgi-bin/mmwebwx-bin/webwxgeticon?seq=676013988&username=@8426554f590e7c0cf399e49d9ea63d2c3e0b2c19dc81df897428b69a66a68497&skey=@crypt_84c2f365_aeea69fa1143cd9832a4eea0fef6f1de
p2368
sVKeyWord
p2369
g43
sVProvince
p2370
g43
sVPYInitial
p2371
VWJ
p2372
sVRemarkName
p2373
V\u738b\u6676\u6676
p2374
sVIsOwner
p2375
I0
sVSex
p2376
I0
sVStarFriend
p2377
I0
sVHideInputBarFlag
p2378
I0
sVChatRoomId
p2379
I0
sVEncryChatRoomId
p2380
g43
sVAttrStatus
p2381
I4133
sVStatues
p2382
I0
stp2383
Rp2384
I1
bag25
(g29
g30
(dp2385
VUserName
p2386
V@8bb14bd8c05fb7bf9900a1a166796846cd0caf04514f8566c42ad86de8d93096
p2387
sVCity
p2388
V\u90d1\u5dde
p2389
sVSnsFlag
p2390
I1
sVDisplayName
p2391
g43
sVUniFriend
p2392
I0
sVMemberCount
p2393
I0
sVOwnerUin
p2394
I0
sVMemberList
p2395
g41
sVAlias
p2396
g43
sVPYQuanPin
p2397
Vmuyu
p2398
sVSignature
p2399
g43
sVRemarkPYInitial
p2400
VYYX
p2401
sVContactFlag
p2402
I1
sVUin
p2403
I0
sVNickName
p2404
V\u6728\u9c7c
p2405
sVAppAccountFlag
p2406
I0
sVVerifyFlag
p2407
I0
sVRemarkPYQuanPin
p2408
Vyueyunxia
p2409
sVHeadImgUrl
p2410
V/cgi-bin/mmwebwx-bin/webwxgeticon?seq=676011730&username=@8bb14bd8c05fb7bf9900a1a166796846cd0caf04514f8566c42ad86de8d93096&skey=@crypt_84c2f365_aeea69fa1143cd9832a4eea0fef6f1de
p2411
sVKeyWord
p2412
g43
sVProvince
p2413
V\u6cb3\u5357
p2414
sVPYInitial
p2415
VMY
p2416
sVRemarkName
p2417
V\u5cb3\u4e91\u971e
p2418
sVIsOwner
p2419
I0
sVSex
p2420
I2
sVStarFriend
p2421
I0
sVHideInputBarFlag
p2422
I0
sVChatRoomId
p2423
I0
sVEncryChatRoomId
p2424
g43
sVAttrStatus
p2425
I103269
sVStatues
p2426
I0
stp2427
Rp2428
I1
bag25
(g29
g30
(dp2429
VUserName
p2430
V@00ef84dc246014df7bd11bad61ccf9440a7e035be496af8a0058d9401ff02396
p2431
sVCity
p2432
V\u5b81\u6ce2
p2433
sVSnsFlag
p2434
I1
sVDisplayName
p2435
g43
sVUniFriend
p2436
I0
sVMemberCount
p2437
I0
sVOwnerUin
p2438
I0
sVMemberList
p2439
g41
sVAlias
p2440
g43
sVPYQuanPin
p2441
Vwushirenfei
p2442
sVSignature
p2443
g43
sVRemarkPYInitial
p2444
VYW
p2445
sVContactFlag
p2446
I1
sVUin
p2447
I0
sVNickName
p2448
V\u309e\u7269\u4e8b\u4eba\u975e\u3003
p2449
sVAppAccountFlag
p2450
I0
sVVerifyFlag
p2451
I0
sVRemarkPYQuanPin
p2452
Vyanwei
p2453
sVHeadImgUrl
p2454
V/cgi-bin/mmwebwx-bin/webwxgeticon?seq=645951349&username=@00ef84dc246014df7bd11bad61ccf9440a7e035be496af8a0058d9401ff02396&skey=@crypt_84c2f365_aeea69fa1143cd9832a4eea0fef6f1de
p2455
sVKeyWord
p2456
g43
sVProvince
p2457
V\u6d59\u6c5f
p2458
sVPYInitial
p2459
VWSRF
p2460
sVRemarkName
p2461
V\u71d5\u4f1f
p2462
sVIsOwner
p2463
I0
sVSex
p2464
I1
sVStarFriend
p2465
I0
sVHideInputBarFlag
p2466
I0
sVChatRoomId
p2467
I0
sVEncryChatRoomId
p2468
g43
sVAttrStatus
p2469
I364581
sVStatues
p2470
I0
stp2471
Rp2472
I1
bag25
(g29
g30
(dp2473
VUserName
p2474
V@8ff8c78645a7f34d21080c9c36efc61bfc574eebeb4d061eb3330c2ec0c8eecd
p2475
sVCity
p2476
g43
sVSnsFlag
p2477
I17
sVDisplayName
p2478
g43
sVUniFriend
p2479
I0
sVMemberCount
p2480
I0
sVOwnerUin
p2481
I0
sVMemberList
p2482
g41
sVAlias
p2483
g43
sVPYQuanPin
p2484
Vdaaiwuyan
p2485
sVSignature
p2486
V\u6211\u70ed\u7231\u751f\u6d3b\uff0c\u7231\u4f73\u94ed\u4e0e\u6668\u66e6\u3002
p2487
sVRemarkPYInitial
p2488
g43
sVContactFlag
p2489
I65537
sVUin
p2490
I0
sVNickName
p2491
V\u5927\u7231\u65e0\u8a00
p2492
sVAppAccountFlag
p2493
I0
sVVerifyFlag
p2494
I0
sVRemarkPYQuanPin
p2495
g43
sVHeadImgUrl
p2496
V/cgi-bin/mmwebwx-bin/webwxgeticon?seq=668101697&username=@8ff8c78645a7f34d21080c9c36efc61bfc574eebeb4d061eb3330c2ec0c8eecd&skey=@crypt_84c2f365_aeea69fa1143cd9832a4eea0fef6f1de
p2497
sVKeyWord
p2498
g43
sVProvince
p2499
g43
sVPYInitial
p2500
VDAWY
p2501
sVRemarkName
p2502
g43
sVIsOwner
p2503
I0
sVSex
p2504
I2
sVStarFriend
p2505
I0
sVHideInputBarFlag
p2506
I0
sVChatRoomId
p2507
I0
sVEncryChatRoomId
p2508
g43
sVAttrStatus
p2509
I4133
sVStatues
p2510
I0
stp2511
Rp2512
I1
bag25
(g29
g30
(dp2513
VUserName
p2514
V@78102d77c5c08702beefb88fcb42adb06bca3139ff8b45e3016dc7aabfe566dd
p2515
sVCity
p2516
V\u90d1\u5dde
p2517
sVSnsFlag
p2518
I17
sVDisplayName
p2519
g43
sVUniFriend
p2520
I0
sVMemberCount
p2521
I0
sVOwnerUin
p2522
I0
sVMemberList
p2523
g41
sVAlias
p2524
g43
sVPYQuanPin
p2525
g43
sVSignature
p2526
V\u65e9
p2527
sVRemarkPYInitial
p2528
VXJ
p2529
sVContactFlag
p2530
I3
sVUin
p2531
I0
sVNickName
p2532
V-.-
p2533
sVAppAccountFlag
p2534
I0
sVVerifyFlag
p2535
I0
sVRemarkPYQuanPin
p2536
Vxiaojian
p2537
sVHeadImgUrl
p2538
V/cgi-bin/mmwebwx-bin/webwxgeticon?seq=676014067&username=@78102d77c5c08702beefb88fcb42adb06bca3139ff8b45e3016dc7aabfe566dd&skey=@crypt_84c2f365_aeea69fa1143cd9832a4eea0fef6f1de
p2539
sVKeyWord
p2540
g43
sVProvince
p2541
V\u6cb3\u5357
p2542
sVPYInitial
p2543
g43
sVRemarkName
p2544
V\u5c0f\u8d31
p2545
sVIsOwner
p2546
I0
sVSex
p2547
I1
sVStarFriend
p2548
I0
sVHideInputBarFlag
p2549
I0
sVChatRoomId
p2550
I0
sVEncryChatRoomId
p2551
g43
sVAttrStatus
p2552
I12413
sVStatues
p2553
I0
stp2554
Rp2555
I1
bag25
(g29
g30
(dp2556
VUserName
p2557
V@40d01e78974f340c6ac700ec238597c3b2c56be3d44c367a032b092de0652cdd
p2558
sVCity
p2559
V\u4e4c\u9c81\u6728\u9f50
p2560
sVSnsFlag
p2561
I49
sVDisplayName
p2562
g43
sVUniFriend
p2563
I0
sVMemberCount
p2564
I0
sVOwnerUin
p2565
I0
sVMemberList
p2566
g41
sVAlias
p2567
g43
sVPYQuanPin
p2568
Vspanclassemojiemoji1f343spanertongyueyuanspanclassemojiemoji1f343span
p2569
sVSignature
p2570
g43
sVRemarkPYInitial
p2571
VNN
p2572
sVContactFlag
p2573
I1
sVUin
p2574
I0
sVNickName
p2575
V\U0001f343\u513f\u7ae5\u4e50\u56ed\U0001f343
p2576
sVAppAccountFlag
p2577
I0
sVVerifyFlag
p2578
I0
sVRemarkPYQuanPin
p2579
Vningning
p2580
sVHeadImgUrl
p2581
V/cgi-bin/mmwebwx-bin/webwxgeticon?seq=668108471&username=@40d01e78974f340c6ac700ec238597c3b2c56be3d44c367a032b092de0652cdd&skey=@crypt_84c2f365_aeea69fa1143cd9832a4eea0fef6f1de
p2582
sVKeyWord
p2583
g43
sVProvince
p2584
V\u65b0\u7586
p2585
sVPYInitial
p2586
VSPANCLASSEMOJIEMOJI1F343SPANETYYSPANCLASSEMOJIEMOJI1F343SPAN
p2587
sVRemarkName
p2588
V\u5b81\u5b81
p2589
sVIsOwner
p2590
I0
sVSex
p2591
I2
sVStarFriend
p2592
I0
sVHideInputBarFlag
p2593
I0
sVChatRoomId
p2594
I0
sVEncryChatRoomId
p2595
g43
sVAttrStatus
p2596
I234343
sVStatues
p2597
I0
stp2598
Rp2599
I1
bag25
(g29
g30
(dp2600
VUserName
p2601
V@0943695d38076e00894efeefe5c784cde0cce4ef6f3723a8184a351c8f6d7fc4
p2602
sVCity
p2603
g43
sVSnsFlag
p2604
I1
sVDisplayName
p2605
g43
sVUniFriend
p2606
I0
sVMemberCount
p2607
I0
sVOwnerUin
p2608
I0
sVMemberList
p2609
g41
sVAlias
p2610
g43
sVPYQuanPin
p2611
Vmumu
p2612
sVSignature
p2613
g43
sVRemarkPYInitial
p2614
g43
sVContactFlag
p2615
I3
sVUin
p2616
I0
sVNickName
p2617
V\u9702\u9702
p2618
sVAppAccountFlag
p2619
I0
sVVerifyFlag
p2620
I0
sVRemarkPYQuanPin
p2621
g43
sVHeadImgUrl
p2622
V/cgi-bin/mmwebwx-bin/webwxgeticon?seq=676014345&username=@0943695d38076e00894efeefe5c784cde0cce4ef6f3723a8184a351c8f6d7fc4&skey=@crypt_84c2f365_aeea69fa1143cd9832a4eea0fef6f1de
p2623
sVKeyWord
p2624
g43
sVProvince
p2625
g43
sVPYInitial
p2626
VMM
p2627
sVRemarkName
p2628
g43
sVIsOwner
p2629
I0
sVSex
p2630
I1
sVStarFriend
p2631
I0
sVHideInputBarFlag
p2632
I0
sVChatRoomId
p2633
I0
sVEncryChatRoomId
p2634
g43
sVAttrStatus
p2635
I4389
sVStatues
p2636
I0
stp2637
Rp2638
I1
bag25
(g29
g30
(dp2639
VUserName
p2640
V@4d0ea595462691b09d2d6b90a00e11d95195cb3e4d5dfbd19a53fac96840ce22
p2641
sVCity
p2642
V\u5357\u9633
p2643
sVSnsFlag
p2644
I17
sVDisplayName
p2645
g43
sVUniFriend
p2646
I0
sVMemberCount
p2647
I0
sVOwnerUin
p2648
I0
sVMemberList
p2649
g41
sVAlias
p2650
g43
sVPYQuanPin
p2651
Vmalinlin
p2652
sVSignature
p2653
V\u52aa\u529b\u505a\u597d\u6700\u597d\u7684\u81ea\u5df1\uff01
p2654
sVRemarkPYInitial
p2655
VMLL
p2656
sVContactFlag
p2657
I3
sVUin
p2658
I0
sVNickName
p2659
V\u9a6c\u7433\u7433
p2660
sVAppAccountFlag
p2661
I0
sVVerifyFlag
p2662
I0
sVRemarkPYQuanPin
p2663
Vmalinlin
p2664
sVHeadImgUrl
p2665
V/cgi-bin/mmwebwx-bin/webwxgeticon?seq=676014405&username=@4d0ea595462691b09d2d6b90a00e11d95195cb3e4d5dfbd19a53fac96840ce22&skey=@crypt_84c2f365_aeea69fa1143cd9832a4eea0fef6f1de
p2666
sVKeyWord
p2667
g43
sVProvince
p2668
V\u6cb3\u5357
p2669
sVPYInitial
p2670
VMLL
p2671
sVRemarkName
p2672
V\u9a6c\u7433\u7433
p2673
sVIsOwner
p2674
I0
sVSex
p2675
I2
sVStarFriend
p2676
I0
sVHideInputBarFlag
p2677
I0
sVChatRoomId
p2678
I0
sVEncryChatRoomId
p2679
g43
sVAttrStatus
p2680
I4197
sVStatues
p2681
I0
stp2682
Rp2683
I1
bag25
(g29
g30
(dp2684
VUserName
p2685
V@7eba775f8ef9c9a1b3169d7d023774e05a505fe4bec0d03c7efa623e63af07ac
p2686
sVCity
p2687
V\u90d1\u5dde
p2688
sVSnsFlag
p2689
I1
sVDisplayName
p2690
g43
sVUniFriend
p2691
I0
sVMemberCount
p2692
I0
sVOwnerUin
p2693
I0
sVMemberList
p2694
g41
sVAlias
p2695
g43
sVPYQuanPin
p2696
Vliuzhanshao
p2697
sVSignature
p2698
V\u5e73\u5e73\u6de1\u6de1\u624d\u662f\u771f
p2699
sVRemarkPYInitial
p2700
g43
sVContactFlag
p2701
I1
sVUin
p2702
I0
sVNickName
p2703
V\u5218\u5c55\u53ec
p2704
sVAppAccountFlag
p2705
I0
sVVerifyFlag
p2706
I0
sVRemarkPYQuanPin
p2707
g43
sVHeadImgUrl
p2708
V/cgi-bin/mmwebwx-bin/webwxgeticon?seq=676014757&username=@7eba775f8ef9c9a1b3169d7d023774e05a505fe4bec0d03c7efa623e63af07ac&skey=@crypt_84c2f365_aeea69fa1143cd9832a4eea0fef6f1de
p2709
sVKeyWord
p2710
g43
sVProvince
p2711
V\u6cb3\u5357
p2712
sVPYInitial
p2713
VLZS
p2714
sVRemarkName
p2715
g43
sVIsOwner
p2716
I0
sVSex
p2717
I1
sVStarFriend
p2718
I0
sVHideInputBarFlag
p2719
I0
sVChatRoomId
p2720
I0
sVEncryChatRoomId
p2721
g43
sVAttrStatus
p2722
I4197
sVStatues
p2723
I0
stp2724
Rp2725
I1
bag25
(g29
g30
(dp2726
VUserName
p2727
V@adbe9cda52260fce16c4c89d53ea89438656f1308384307987c0d3bbc63e3a7e
p2728
sVCity
p2729
V\u5468\u53e3
p2730
sVSnsFlag
p2731
I1
sVDisplayName
p2732
g43
sVUniFriend
p2733
I0
sVMemberCount
p2734
I0
sVOwnerUin
p2735
I0
sVMemberList
p2736
g41
sVAlias
p2737
g43
sVPYQuanPin
p2738
Vyukemeng
p2739
sVSignature
p2740
g43
sVRemarkPYInitial
p2741
VYKM
p2742
sVContactFlag
p2743
I1
sVUin
p2744
I0
sVNickName
p2745
V\u4e8e\u67ef\u5b5f
p2746
sVAppAccountFlag
p2747
I0
sVVerifyFlag
p2748
I0
sVRemarkPYQuanPin
p2749
Vyukemeng
p2750
sVHeadImgUrl
p2751
V/cgi-bin/mmwebwx-bin/webwxgeticon?seq=676012256&username=@adbe9cda52260fce16c4c89d53ea89438656f1308384307987c0d3bbc63e3a7e&skey=@crypt_84c2f365_aeea69fa1143cd9832a4eea0fef6f1de
p2752
sVKeyWord
p2753
g43
sVProvince
p2754
V\u6cb3\u5357
p2755
sVPYInitial
p2756
VYKM
p2757
sVRemarkName
p2758
V\u4e8e\u67ef\u5b5f
p2759
sVIsOwner
p2760
I0
sVSex
p2761
I1
sVStarFriend
p2762
I0
sVHideInputBarFlag
p2763
I0
sVChatRoomId
p2764
I0
sVEncryChatRoomId
p2765
g43
sVAttrStatus
p2766
I4133
sVStatues
p2767
I0
stp2768
Rp2769
I1
bag25
(g29
g30
(dp2770
VUserName
p2771
V@73191e49c0ddacf6ebe45c3e8b4b81920aec980f0d2ac0ec07ae85a1cb03b423
p2772
sVCity
p2773
g43
sVSnsFlag
p2774
I1
sVDisplayName
p2775
g43
sVUniFriend
p2776
I0
sVMemberCount
p2777
I0
sVOwnerUin
p2778
I0
sVMemberList
p2779
g41
sVAlias
p2780
g43
sVPYQuanPin
p2781
Vyouzhixiaozhudududu
p2782
sVSignature
p2783
g43
sVRemarkPYInitial
p2784
VMY
p2785
sVContactFlag
p2786
I1
sVUin
p2787
I0
sVNickName
p2788
V\u6709\u53ea\u5c0f\u732a\u561f\u561f\u561f
p2789
sVAppAccountFlag
p2790
I0
sVVerifyFlag
p2791
I0
sVRemarkPYQuanPin
p2792
Vmaoyue
p2793
sVHeadImgUrl
p2794
V/cgi-bin/mmwebwx-bin/webwxgeticon?seq=676014880&username=@73191e49c0ddacf6ebe45c3e8b4b81920aec980f0d2ac0ec07ae85a1cb03b423&skey=@crypt_84c2f365_aeea69fa1143cd9832a4eea0fef6f1de
p2795
sVKeyWord
p2796
g43
sVProvince
p2797
g43
sVPYInitial
p2798
VYZXZDDD
p2799
sVRemarkName
p2800
V\u6bdb\u60a6
p2801
sVIsOwner
p2802
I0
sVSex
p2803
I2
sVStarFriend
p2804
I0
sVHideInputBarFlag
p2805
I0
sVChatRoomId
p2806
I0
sVEncryChatRoomId
p2807
g43
sVAttrStatus
p2808
I4197
sVStatues
p2809
I0
stp2810
Rp2811
I1
bag25
(g29
g30
(dp2812
VUserName
p2813
V@a559e68e8e1be294bd85848bf1efc0953fd318300f62e717413f1faea1dcbddf
p2814
sVCity
p2815
V\u5468\u53e3
p2816
sVSnsFlag
p2817
I1
sVDisplayName
p2818
g43
sVUniFriend
p2819
I0
sVMemberCount
p2820
I0
sVOwnerUin
p2821
I0
sVMemberList
p2822
g41
sVAlias
p2823
g43
sVPYQuanPin
p2824
Vlihang
p2825
sVSignature
p2826
g43
sVRemarkPYInitial
p2827
VLMJ
p2828
sVContactFlag
p2829
I3
sVUin
p2830
I0
sVNickName
p2831
V\u674e\u822a
p2832
sVAppAccountFlag
p2833
I0
sVVerifyFlag
p2834
I0
sVRemarkPYQuanPin
p2835
Vlimingjian
p2836
sVHeadImgUrl
p2837
V/cgi-bin/mmwebwx-bin/webwxgeticon?seq=676014323&username=@a559e68e8e1be294bd85848bf1efc0953fd318300f62e717413f1faea1dcbddf&skey=@crypt_84c2f365_aeea69fa1143cd9832a4eea0fef6f1de
p2838
sVKeyWord
p2839
g43
sVProvince
p2840
V\u6cb3\u5357
p2841
sVPYInitial
p2842
VLH
p2843
sVRemarkName
p2844
V\u674e\u660e\u9274
p2845
sVIsOwner
p2846
I0
sVSex
p2847
I1
sVStarFriend
p2848
I0
sVHideInputBarFlag
p2849
I0
sVChatRoomId
p2850
I0
sVEncryChatRoomId
p2851
g43
sVAttrStatus
p2852
I104549
sVStatues
p2853
I0
stp2854
Rp2855
I1
bag25
(g29
g30
(dp2856
VUserName
p2857
V@44a20c97bef64b5827f02ab9f070595f3013bd85aeeee41b78fc7a28f55ac232
p2858
sVCity
p2859
g43
sVSnsFlag
p2860
I17
sVDisplayName
p2861
g43
sVUniFriend
p2862
I0
sVMemberCount
p2863
I0
sVOwnerUin
p2864
I0
sVMemberList
p2865
g41
sVAlias
p2866
g43
sVPYQuanPin
p2867
VThatPerson?
p2868
sVSignature
p2869
V\u6211\u559c\u7231\u826f\u5584\uff0c\u4e0d\u559c\u7231\u796d\u7940\uff1b\u559c\u7231\u8ba4\u8bc6\u3000\u8036\u7a23\uff0c\u80dc\u4e8e\u71d4\u796d\u3002
p2870
sVRemarkPYInitial
p2871
VMXJ
p2872
sVContactFlag
p2873
I65537
sVUin
p2874
I0
sVNickName
p2875
VThat Person \u0f00
p2876
sVAppAccountFlag
p2877
I0
sVVerifyFlag
p2878
I0
sVRemarkPYQuanPin
p2879
Vmengxiaojie
p2880
sVHeadImgUrl
p2881
V/cgi-bin/mmwebwx-bin/webwxgeticon?seq=676013900&username=@44a20c97bef64b5827f02ab9f070595f3013bd85aeeee41b78fc7a28f55ac232&skey=@crypt_84c2f365_aeea69fa1143cd9832a4eea0fef6f1de
p2882
sVKeyWord
p2883
g43
sVProvince
p2884
g43
sVPYInitial
p2885
VTHATPERSON?
p2886
sVRemarkName
p2887
V\u5b5f\u8096\u6770
p2888
sVIsOwner
p2889
I0
sVSex
p2890
I2
sVStarFriend
p2891
I0
sVHideInputBarFlag
p2892
I0
sVChatRoomId
p2893
I0
sVEncryChatRoomId
p2894
g43
sVAttrStatus
p2895
I69733
sVStatues
p2896
I0
stp2897
Rp2898
I1
bag25
(g29
g30
(dp2899
VUserName
p2900
V@62d78ed54c1606f31d07b9578d15e5ff042f822771bd81f6e4577306a014aac0
p2901
sVCity
p2902
g43
sVSnsFlag
p2903
I17
sVDisplayName
p2904
g43
sVUniFriend
p2905
I0
sVMemberCount
p2906
I0
sVOwnerUin
p2907
I0
sVMemberList
p2908
g41
sVAlias
p2909
g43
sVPYQuanPin
p2910
VPeny
p2911
sVSignature
p2912
VI just want to be free in my world .
p2913
sVRemarkPYInitial
p2914
g43
sVContactFlag
p2915
I1
sVUin
p2916
I0
sVNickName
p2917
VPeny
p2918
sVAppAccountFlag
p2919
I0
sVVerifyFlag
p2920
I0
sVRemarkPYQuanPin
p2921
g43
sVHeadImgUrl
p2922
V/cgi-bin/mmwebwx-bin/webwxgeticon?seq=676015053&username=@62d78ed54c1606f31d07b9578d15e5ff042f822771bd81f6e4577306a014aac0&skey=@crypt_84c2f365_aeea69fa1143cd9832a4eea0fef6f1de
p2923
sVKeyWord
p2924
g43
sVProvince
p2925
g43
sVPYInitial
p2926
VPENY
p2927
sVRemarkName
p2928
g43
sVIsOwner
p2929
I0
sVSex
p2930
I2
sVStarFriend
p2931
I0
sVHideInputBarFlag
p2932
I0
sVChatRoomId
p2933
I0
sVEncryChatRoomId
p2934
g43
sVAttrStatus
p2935
I5157
sVStatues
p2936
I0
stp2937
Rp2938
I1
bag25
(g29
g30
(dp2939
VUserName
p2940
V@2395460f0d83d1727ecfd818ba730dfa40a3707b13441a5869fc40ad39d391e6
p2941
sVCity
p2942
V\u957f\u6625
p2943
sVSnsFlag
p2944
I1
sVDisplayName
p2945
g43
sVUniFriend
p2946
I0
sVMemberCount
p2947
I0
sVOwnerUin
p2948
I0
sVMemberList
p2949
g41
sVAlias
p2950
g43
sVPYQuanPin
p2951
Vxihuanyigeren
p2952
sVSignature
p2953
V\u4e0a\u5e1d\u4f5c\u8bc1\u6211\u662f\u4e2a\u597d\u59d1\u5a18
p2954
sVRemarkPYInitial
p2955
VWY
p2956
sVContactFlag
p2957
I3
sVUin
p2958
I0
sVNickName
p2959
V\u559c\u6b22\u4e00\u4e2a\u4eba
p2960
sVAppAccountFlag
p2961
I0
sVVerifyFlag
p2962
I0
sVRemarkPYQuanPin
p2963
Vwangyue
p2964
sVHeadImgUrl
p2965
V/cgi-bin/mmwebwx-bin/webwxgeticon?seq=676014920&username=@2395460f0d83d1727ecfd818ba730dfa40a3707b13441a5869fc40ad39d391e6&skey=@crypt_84c2f365_aeea69fa1143cd9832a4eea0fef6f1de
p2966
sVKeyWord
p2967
g43
sVProvince
p2968
V\u5409\u6797
p2969
sVPYInitial
p2970
VXHYGR
p2971
sVRemarkName
p2972
V\u738b\u6708
p2973
sVIsOwner
p2974
I0
sVSex
p2975
I2
sVStarFriend
p2976
I0
sVHideInputBarFlag
p2977
I0
sVChatRoomId
p2978
I0
sVEncryChatRoomId
p2979
g43
sVAttrStatus
p2980
I135269
sVStatues
p2981
I0
stp2982
Rp2983
I1
bag25
(g29
g30
(dp2984
VUserName
p2985
V@693f1a3546016514a4284af54b865b6a21608a0ddcf764760c24e83608b2d5e2
p2986
sVCity
p2987
V\u90d1\u5dde
p2988
sVSnsFlag
p2989
I1
sVDisplayName
p2990
g43
sVUniFriend
p2991
I0
sVMemberCount
p2992
I0
sVOwnerUin
p2993
I0
sVMemberList
p2994
g41
sVAlias
p2995
g43
sVPYQuanPin
p2996
Vkun
p2997
sVSignature
p2998
V\u968f\u9047\u800c\u5b89
p2999
sVRemarkPYInitial
p3000
VWK
p3001
sVContactFlag
p3002
I1
sVUin
p3003
I0
sVNickName
p3004
V@\u5764
p3005
sVAppAccountFlag
p3006
I0
sVVerifyFlag
p3007
I0
sVRemarkPYQuanPin
p3008
Vwenkun
p3009
sVHeadImgUrl
p3010
V/cgi-bin/mmwebwx-bin/webwxgeticon?seq=676010570&username=@693f1a3546016514a4284af54b865b6a21608a0ddcf764760c24e83608b2d5e2&skey=@crypt_84c2f365_aeea69fa1143cd9832a4eea0fef6f1de
p3011
sVKeyWord
p3012
g43
sVProvince
p3013
V\u6cb3\u5357
p3014
sVPYInitial
p3015
VK
p3016
sVRemarkName
p3017
V\u6587\u5764
p3018
sVIsOwner
p3019
I0
sVSex
p3020
I1
sVStarFriend
p3021
I0
sVHideInputBarFlag
p3022
I0
sVChatRoomId
p3023
I0
sVEncryChatRoomId
p3024
g43
sVAttrStatus
p3025
I6269
sVStatues
p3026
I0
stp3027
Rp3028
I1
bag25
(g29
g30
(dp3029
VUserName
p3030
V@916d3169464a882cafa776aea39634b597fa0db664ff6e6118874656539eea21
p3031
sVCity
p3032
V\u90d1\u5dde
p3033
sVSnsFlag
p3034
I49
sVDisplayName
p3035
g43
sVUniFriend
p3036
I0
sVMemberCount
p3037
I0
sVOwnerUin
p3038
I0
sVMemberList
p3039
g41
sVAlias
p3040
g43
sVPYQuanPin
p3041
VCarl
p3042
sVSignature
p3043
V\u6bcf\u4e00\u4e2a\u4f60\u4e0d\u6ee1\u610f\u7684\u73b0\u5728\uff0c\u90fd\u6709\u4e00\u4e2a\u6ca1\u6709\u52aa\u529b\u7684\u66fe\u7ecf\uff01
p3044
sVRemarkPYInitial
p3045
VWYXC
p3046
sVContactFlag
p3047
I3
sVUin
p3048
I0
sVNickName
p3049
VCarl
p3050
sVAppAccountFlag
p3051
I0
sVVerifyFlag
p3052
I0
sVRemarkPYQuanPin
p3053
Vwangyixuechang
p3054
sVHeadImgUrl
p3055
V/cgi-bin/mmwebwx-bin/webwxgeticon?seq=676011376&username=@916d3169464a882cafa776aea39634b597fa0db664ff6e6118874656539eea21&skey=@crypt_84c2f365_aeea69fa1143cd9832a4eea0fef6f1de
p3056
sVKeyWord
p3057
g43
sVProvince
p3058
V\u6cb3\u5357
p3059
sVPYInitial
p3060
VCARL
p3061
sVRemarkName
p3062
V\u738b\u6bc5\u5b66\u957f
p3063
sVIsOwner
p3064
I0
sVSex
p3065
I1
sVStarFriend
p3066
I0
sVHideInputBarFlag
p3067
I0
sVChatRoomId
p3068
I0
sVEncryChatRoomId
p3069
g43
sVAttrStatus
p3070
I231911
sVStatues
p3071
I0
stp3072
Rp3073
I1
bag25
(g29
g30
(dp3074
VUserName
p3075
V@aeecd27f739eb1412661cde22b3af74f2a2165b3a5b557a9db1d4b28237d6055
p3076
sVCity
p3077
V\u90d1\u5dde
p3078
sVSnsFlag
p3079
I1
sVDisplayName
p3080
g43
sVUniFriend
p3081
I0
sVMemberCount
p3082
I0
sVOwnerUin
p3083
I0
sVMemberList
p3084
g41
sVAlias
p3085
g43
sVPYQuanPin
p3086
Vspanclassemojiemoji1f338span
p3087
sVSignature
p3088
V\u77e5\u4e16\u6545\u800c\u4e0d\u4e16\u6545\u624d\u662f\u6700\u5584\u826f\u7684\u6210\u719f\u2714
p3089
sVRemarkPYInitial
p3090
VQRT
p3091
sVContactFlag
p3092
I3
sVUin
p3093
I0
sVNickName
p3094
V\U0001f338
p3095
sVAppAccountFlag
p3096
I0
sVVerifyFlag
p3097
I0
sVRemarkPYQuanPin
p3098
Vqiaorunting
p3099
sVHeadImgUrl
p3100
V/cgi-bin/mmwebwx-bin/webwxgeticon?seq=668103154&username=@aeecd27f739eb1412661cde22b3af74f2a2165b3a5b557a9db1d4b28237d6055&skey=@crypt_84c2f365_aeea69fa1143cd9832a4eea0fef6f1de
p3101
sVKeyWord
p3102
g43
sVProvince
p3103
V\u6cb3\u5357
p3104
sVPYInitial
p3105
VSPANCLASSEMOJIEMOJI1F338SPAN
p3106
sVRemarkName
p3107
V\u4e54\u6da6\u4ead
p3108
sVIsOwner
p3109
I0
sVSex
p3110
I2
sVStarFriend
p3111
I0
sVHideInputBarFlag
p3112
I0
sVChatRoomId
p3113
I0
sVEncryChatRoomId
p3114
g43
sVAttrStatus
p3115
I4197
sVStatues
p3116
I0
stp3117
Rp3118
I1
bag25
(g29
g30
(dp3119
VUserName
p3120
V@7183fc900123e6352391fe3d9974c3af3b89af993206275c91622c78d0daa1ed
p3121
sVCity
p3122
V\u90d1\u5dde
p3123
sVSnsFlag
p3124
I1
sVDisplayName
p3125
g43
sVUniFriend
p3126
I0
sVMemberCount
p3127
I0
sVOwnerUin
p3128
I0
sVMemberList
p3129
g41
sVAlias
p3130
g43
sVPYQuanPin
p3131
V??
p3132
sVSignature
p3133
V\u53ea\u8981\u6211\u60f3\u505a\u7684\u5c31\u6ca1\u6709\u6211\u505a\u4e0d\u5230\u7684
p3134
sVRemarkPYInitial
p3135
VLXF
p3136
sVContactFlag
p3137
I1
sVUin
p3138
I0
sVNickName
p3139
V\uccad\ucd98
p3140
sVAppAccountFlag
p3141
I0
sVVerifyFlag
p3142
I0
sVRemarkPYQuanPin
p3143
Vlixiaofeng
p3144
sVHeadImgUrl
p3145
V/cgi-bin/mmwebwx-bin/webwxgeticon?seq=668107159&username=@7183fc900123e6352391fe3d9974c3af3b89af993206275c91622c78d0daa1ed&skey=@crypt_84c2f365_aeea69fa1143cd9832a4eea0fef6f1de
p3146
sVKeyWord
p3147
g43
sVProvince
p3148
V\u6cb3\u5357
p3149
sVPYInitial
p3150
V??
p3151
sVRemarkName
p3152
V\u674e\u6653\u51e4
p3153
sVIsOwner
p3154
I0
sVSex
p3155
I2
sVStarFriend
p3156
I0
sVHideInputBarFlag
p3157
I0
sVChatRoomId
p3158
I0
sVEncryChatRoomId
p3159
g43
sVAttrStatus
p3160
I4133
sVStatues
p3161
I0
stp3162
Rp3163
I1
bag25
(g29
g30
(dp3164
VUserName
p3165
V@bdf9bdc7183e5169348c086689d493c672d624594aafaabf470fe75763d072ae
p3166
sVCity
p3167
V\u6768\u6d66
p3168
sVSnsFlag
p3169
I1
sVDisplayName
p3170
g43
sVUniFriend
p3171
I0
sVMemberCount
p3172
I0
sVOwnerUin
p3173
I0
sVMemberList
p3174
g41
sVAlias
p3175
g43
sVPYQuanPin
p3176
Vleishenspanclassemojiemoji1f47bspanspanclassemojiemoji1f3b1span
p3177
sVSignature
p3178
V\u5341\u5e74\u524d\uff0c\u6211\u4eec\u7684\u68a6\u5f88\u7f8e\uff1b\u5341\u5e74\u540e\uff0c\u6211\u4eec\u662f\u6700\u7f8e\u7684\u68a6\u3002
p3179
sVRemarkPYInitial
p3180
VXS
p3181
sVContactFlag
p3182
I3
sVUin
p3183
I0
sVNickName
p3184
V\u96f7\u795e\U0001f47b\U0001f3b1
p3185
sVAppAccountFlag
p3186
I0
sVVerifyFlag
p3187
I0
sVRemarkPYQuanPin
p3188
Vxiaosen
p3189
sVHeadImgUrl
p3190
V/cgi-bin/mmwebwx-bin/webwxgeticon?seq=676015574&username=@bdf9bdc7183e5169348c086689d493c672d624594aafaabf470fe75763d072ae&skey=@crypt_84c2f365_aeea69fa1143cd9832a4eea0fef6f1de
p3191
sVKeyWord
p3192
g43
sVProvince
p3193
V\u4e0a\u6d77
p3194
sVPYInitial
p3195
VLSSPANCLASSEMOJIEMOJI1F47BSPANSPANCLASSEMOJIEMOJI1F3B1SPAN
p3196
sVRemarkName
p3197
V\u5c0f\u68ee
p3198
sVIsOwner
p3199
I0
sVSex
p3200
I1
sVStarFriend
p3201
I0
sVHideInputBarFlag
p3202
I0
sVChatRoomId
p3203
I0
sVEncryChatRoomId
p3204
g43
sVAttrStatus
p3205
I233661
sVStatues
p3206
I0
stp3207
Rp3208
I1
bag25
(g29
g30
(dp3209
VUserName
p3210
V@b5985d0a62b3e18481a552ab0636c3c5aedaebf6bc6eb0a06ac5b004a199228d
p3211
sVCity
p3212
V\u90d1\u5dde
p3213
sVSnsFlag
p3214
I1
sVDisplayName
p3215
g43
sVUniFriend
p3216
I0
sVMemberCount
p3217
I0
sVOwnerUin
p3218
I0
sVMemberList
p3219
g41
sVAlias
p3220
g43
sVPYQuanPin
p3221
Vspanclassemojiemoji1f451spanyangdanspanclassemojiemoji1f444span
p3222
sVSignature
p3223
V\u6218\u5c31\u6218\uff0c\u8c01\u6015\u8c01
p3224
sVRemarkPYInitial
p3225
VYJ
p3226
sVContactFlag
p3227
I1
sVUin
p3228
I0
sVNickName
p3229
V\U0001f451 \u59ce\u5369 \U0001f444
p3230
sVAppAccountFlag
p3231
I0
sVVerifyFlag
p3232
I0
sVRemarkPYQuanPin
p3233
Vyangjie
p3234
sVHeadImgUrl
p3235
V/cgi-bin/mmwebwx-bin/webwxgeticon?seq=676015582&username=@b5985d0a62b3e18481a552ab0636c3c5aedaebf6bc6eb0a06ac5b004a199228d&skey=@crypt_84c2f365_aeea69fa1143cd9832a4eea0fef6f1de
p3236
sVKeyWord
p3237
g43
sVProvince
p3238
V\u6cb3\u5357
p3239
sVPYInitial
p3240
VSPANCLASSEMOJIEMOJI1F451SPANYDSPANCLASSEMOJIEMOJI1F444SPAN
p3241
sVRemarkName
p3242
V\u6768\u6770
p3243
sVIsOwner
p3244
I0
sVSex
p3245
I2
sVStarFriend
p3246
I0
sVHideInputBarFlag
p3247
I0
sVChatRoomId
p3248
I0
sVEncryChatRoomId
p3249
g43
sVAttrStatus
p3250
I4197
sVStatues
p3251
I0
stp3252
Rp3253
I1
bag25
(g29
g30
(dp3254
VUserName
p3255
V@1f8e8a3b9810db3d35ffd2a92b8135d64fd2cccabdd1285730302527af1a3b0f
p3256
sVCity
p3257
g43
sVSnsFlag
p3258
I17
sVDisplayName
p3259
g43
sVUniFriend
p3260
I0
sVMemberCount
p3261
I0
sVOwnerUin
p3262
I0
sVMemberList
p3263
g41
sVAlias
p3264
g43
sVPYQuanPin
p3265
Vlixiaonao
p3266
sVSignature
p3267
V\u6843\u4e4b\u592d\u592d\uff0c\u707c\u707c\u5176\u534e\uff0c\u4e4b\u5b50\u4e8e\u5f52\uff0c\u5b9c\u5176\u5ba4\u5bb6
p3268
sVRemarkPYInitial
p3269
VLYS
p3270
sVContactFlag
p3271
I65539
sVUin
p3272
I0
sVNickName
p3273
V\u674e\u5c0f\u95f9
p3274
sVAppAccountFlag
p3275
I0
sVVerifyFlag
p3276
I0
sVRemarkPYQuanPin
p3277
Vliyueshen
p3278
sVHeadImgUrl
p3279
V/cgi-bin/mmwebwx-bin/webwxgeticon?seq=668107056&username=@1f8e8a3b9810db3d35ffd2a92b8135d64fd2cccabdd1285730302527af1a3b0f&skey=@crypt_84c2f365_aeea69fa1143cd9832a4eea0fef6f1de
p3280
sVKeyWord
p3281
g43
sVProvince
p3282
VCanberra
p3283
sVPYInitial
p3284
VLXN
p3285
sVRemarkName
p3286
V\u674e\u73a5\u71ca
p3287
sVIsOwner
p3288
I0
sVSex
p3289
I2
sVStarFriend
p3290
I0
sVHideInputBarFlag
p3291
I0
sVChatRoomId
p3292
I0
sVEncryChatRoomId
p3293
g43
sVAttrStatus
p3294
I33691045
sVStatues
p3295
I0
stp3296
Rp3297
I1
bag25
(g29
g30
(dp3298
VUserName
p3299
V@713f9295cf043dfb39d2a356502a1a0f7ef70c2b54d8020ba9917586afd97224
p3300
sVCity
p3301
V\u6df1\u5733
p3302
sVSnsFlag
p3303
I17
sVDisplayName
p3304
g43
sVUniFriend
p3305
I0
sVMemberCount
p3306
I0
sVOwnerUin
p3307
I0
sVMemberList
p3308
g41
sVAlias
p3309
g43
sVPYQuanPin
p3310
VguanglongPang
p3311
sVSignature
p3312
V\u5076\u9047\u8774\u8776\u7684\u7fc5\u8180\uff0c\u4eca\u751f\u4fbf\u6709\u4e00\u4e16\u82b1\u9999\u3002
p3313
sVRemarkPYInitial
p3314
VPYK
p3315
sVContactFlag
p3316
I1
sVUin
p3317
I0
sVNickName
p3318
V\u5e7f\u9f8d\u2014Pang
p3319
sVAppAccountFlag
p3320
I0
sVVerifyFlag
p3321
I0
sVRemarkPYQuanPin
p3322
Vpangyinkuan
p3323
sVHeadImgUrl
p3324
V/cgi-bin/mmwebwx-bin/webwxgeticon?seq=676015721&username=@713f9295cf043dfb39d2a356502a1a0f7ef70c2b54d8020ba9917586afd97224&skey=@crypt_84c2f365_aeea69fa1143cd9832a4eea0fef6f1de
p3325
sVKeyWord
p3326
g43
sVProvince
p3327
V\u5e7f\u4e1c
p3328
sVPYInitial
p3329
VGLPANG
p3330
sVRemarkName
p3331
V\u5e9e\u94f6\u5bbd
p3332
sVIsOwner
p3333
I0
sVSex
p3334
I2
sVStarFriend
p3335
I0
sVHideInputBarFlag
p3336
I0
sVChatRoomId
p3337
I0
sVEncryChatRoomId
p3338
g43
sVAttrStatus
p3339
I38309
sVStatues
p3340
I0
stp3341
Rp3342
I1
bag25
(g29
g30
(dp3343
VUserName
p3344
V@42eb12948cbcd7e04606b0f99187be0aaf042843538f4d2351d941c4386f417f
p3345
sVCity
p3346
V\u5468\u53e3
p3347
sVSnsFlag
p3348
I1
sVDisplayName
p3349
g43
sVUniFriend
p3350
I0
sVMemberCount
p3351
I0
sVOwnerUin
p3352
I0
sVMemberList
p3353
g41
sVAlias
p3354
g43
sVPYQuanPin
p3355
Vhan
p3356
sVSignature
p3357
V\u63d0\u9ad8\u81ea\u5df1\u7684\u773c\u754c\u548c\u80fd\u529b\u3002
p3358
sVRemarkPYInitial
p3359
VSY
p3360
sVContactFlag
p3361
I8193
sVUin
p3362
I0
sVNickName
p3363
V\u5bd2
p3364
sVAppAccountFlag
p3365
I0
sVVerifyFlag
p3366
I0
sVRemarkPYQuanPin
p3367
Vsunyue
p3368
sVHeadImgUrl
p3369
V/cgi-bin/mmwebwx-bin/webwxgeticon?seq=652562700&username=@42eb12948cbcd7e04606b0f99187be0aaf042843538f4d2351d941c4386f417f&skey=@crypt_84c2f365_aeea69fa1143cd9832a4eea0fef6f1de
p3370
sVKeyWord
p3371
g43
sVProvince
p3372
V\u6cb3\u5357
p3373
sVPYInitial
p3374
g719
sVRemarkName
p3375
V\u5b59\u60a6
p3376
sVIsOwner
p3377
I0
sVSex
p3378
I2
sVStarFriend
p3379
I0
sVHideInputBarFlag
p3380
I0
sVChatRoomId
p3381
I0
sVEncryChatRoomId
p3382
g43
sVAttrStatus
p3383
I102501
sVStatues
p3384
I0
stp3385
Rp3386
I1
bag25
(g29
g30
(dp3387
VUserName
p3388
V@84dec72500ca2c4ca59b11088ed8a4c93dfdd4dca136cb9b3de20e06dd6ff536
p3389
sVCity
p3390
g43
sVSnsFlag
p3391
I1
sVDisplayName
p3392
g43
sVUniFriend
p3393
I0
sVMemberCount
p3394
I0
sVOwnerUin
p3395
I0
sVMemberList
p3396
g41
sVAlias
p3397
g43
sVPYQuanPin
p3398
Vxinxinxiangrong
p3399
sVSignature
p3400
g43
sVRemarkPYInitial
p3401
VCXX
p3402
sVContactFlag
p3403
I3
sVUin
p3404
I0
sVNickName
p3405
V\u6b23\u6b23\u5411\u8363
p3406
sVAppAccountFlag
p3407
I0
sVVerifyFlag
p3408
I0
sVRemarkPYQuanPin
p3409
Vchenxinxin
p3410
sVHeadImgUrl
p3411
V/cgi-bin/mmwebwx-bin/webwxgeticon?seq=676013716&username=@84dec72500ca2c4ca59b11088ed8a4c93dfdd4dca136cb9b3de20e06dd6ff536&skey=@crypt_84c2f365_aeea69fa1143cd9832a4eea0fef6f1de
p3412
sVKeyWord
p3413
g43
sVProvince
p3414
g43
sVPYInitial
p3415
VXXXR
p3416
sVRemarkName
p3417
V\u9648\u6b23\u6b23
p3418
sVIsOwner
p3419
I0
sVSex
p3420
I0
sVStarFriend
p3421
I0
sVHideInputBarFlag
p3422
I0
sVChatRoomId
p3423
I0
sVEncryChatRoomId
p3424
g43
sVAttrStatus
p3425
I4197
sVStatues
p3426
I0
stp3427
Rp3428
I1
bag25
(g29
g30
(dp3429
VUserName
p3430
V@0780bd9fd13be78ae0fc9594b570d4e472b7adfe181fe6021a5e9607333d8959
p3431
sVCity
p3432
g43
sVSnsFlag
p3433
I1
sVDisplayName
p3434
g43
sVUniFriend
p3435
I0
sVMemberCount
p3436
I0
sVOwnerUin
p3437
I0
sVMemberList
p3438
g41
sVAlias
p3439
g43
sVPYQuanPin
p3440
Vqiutianyibei
p3441
sVSignature
p3442
g43
sVRemarkPYInitial
p3443
VLKX
p3444
sVContactFlag
p3445
I1
sVUin
p3446
I0
sVNickName
p3447
V\u79cb\u5929\u4ee5\u5317
p3448
sVAppAccountFlag
p3449
I0
sVVerifyFlag
p3450
I0
sVRemarkPYQuanPin
p3451
Vlvkaixin
p3452
sVHeadImgUrl
p3453
V/cgi-bin/mmwebwx-bin/webwxgeticon?seq=676015872&username=@0780bd9fd13be78ae0fc9594b570d4e472b7adfe181fe6021a5e9607333d8959&skey=@crypt_84c2f365_aeea69fa1143cd9832a4eea0fef6f1de
p3454
sVKeyWord
p3455
g43
sVProvince
p3456
g43
sVPYInitial
p3457
VQTYB
p3458
sVRemarkName
p3459
V\u5415\u5f00\u5fc3
p3460
sVIsOwner
p3461
I0
sVSex
p3462
I0
sVStarFriend
p3463
I0
sVHideInputBarFlag
p3464
I0
sVChatRoomId
p3465
I0
sVEncryChatRoomId
p3466
g43
sVAttrStatus
p3467
I135805
sVStatues
p3468
I0
stp3469
Rp3470
I1
bag25
(g29
g30
(dp3471
VUserName
p3472
V@6513bdf3d7474ed9ab26f252868c6d7470a56fd81a60b9c9d6a600602bd351f4
p3473
sVCity
p3474
V\u5468\u53e3
p3475
sVSnsFlag
p3476
I17
sVDisplayName
p3477
g43
sVUniFriend
p3478
I0
sVMemberCount
p3479
I0
sVOwnerUin
p3480
I0
sVMemberList
p3481
g41
sVAlias
p3482
g43
sVPYQuanPin
p3483
Vwenchao
p3484
sVSignature
p3485
V\u65e9\u4e0a\u7684\u9633\u5149\u2026\u2026\u2026\u2026\u2026\u2026\u2026\u2026\u2026\u2026\u2026\u2026\u2026\u2026\u2026\u2026\u2026\u2026\u2026\u2026\u2026\u2026\u2026\u2026\u2026
p3486
sVRemarkPYInitial
p3487
VWC
p3488
sVContactFlag
p3489
I1
sVUin
p3490
I0
sVNickName
p3491
V\u6587\u8d85
p3492
sVAppAccountFlag
p3493
I0
sVVerifyFlag
p3494
I0
sVRemarkPYQuanPin
p3495
Vwenchao
p3496
sVHeadImgUrl
p3497
V/cgi-bin/mmwebwx-bin/webwxgeticon?seq=634152856&username=@6513bdf3d7474ed9ab26f252868c6d7470a56fd81a60b9c9d6a600602bd351f4&skey=@crypt_84c2f365_aeea69fa1143cd9832a4eea0fef6f1de
p3498
sVKeyWord
p3499
g43
sVProvince
p3500
V\u6cb3\u5357
p3501
sVPYInitial
p3502
VWC
p3503
sVRemarkName
p3504
V\u6587\u8d85
p3505
sVIsOwner
p3506
I0
sVSex
p3507
I1
sVStarFriend
p3508
I0
sVHideInputBarFlag
p3509
I0
sVChatRoomId
p3510
I0
sVEncryChatRoomId
p3511
g43
sVAttrStatus
p3512
I135269
sVStatues
p3513
I0
stp3514
Rp3515
I1
bag25
(g29
g30
(dp3516
VUserName
p3517
V@458dab341ac0b5070e766d29e7826f176649937a8a80aa0abc94e547f73a6e5b
p3518
sVCity
p3519
V\u5468\u53e3
p3520
sVSnsFlag
p3521
I1
sVDisplayName
p3522
g43
sVUniFriend
p3523
I0
sVMemberCount
p3524
I0
sVOwnerUin
p3525
I0
sVMemberList
p3526
g41
sVAlias
p3527
g43
sVPYQuanPin
p3528
Vsuxuepiaoling
p3529
sVSignature
p3530
V\u4e16\u754c\u4e0a\u6700\u75db\u7684\u75db\uff0c\u662f\u66fe\u7ecf\u4fe1\u8a93\u65e6\u65e6\u8bf4\u7231\u81ea\u5df1\u7684\u4eba\uff0c\u6700\u540e\u8f6c\u8eab\u7231\u4e86\u522b\u4eba
p3531
sVRemarkPYInitial
p3532
VXY
p3533
sVContactFlag
p3534
I1
sVUin
p3535
I0
sVNickName
p3536
V\u7d20\u96ea\u98d8\u96f6
p3537
sVAppAccountFlag
p3538
I0
sVVerifyFlag
p3539
I0
sVRemarkPYQuanPin
p3540
Vxiaoying
p3541
sVHeadImgUrl
p3542
V/cgi-bin/mmwebwx-bin/webwxgeticon?seq=676015945&username=@458dab341ac0b5070e766d29e7826f176649937a8a80aa0abc94e547f73a6e5b&skey=@crypt_84c2f365_aeea69fa1143cd9832a4eea0fef6f1de
p3543
sVKeyWord
p3544
g43
sVProvince
p3545
V\u6cb3\u5357
p3546
sVPYInitial
p3547
VSXPL
p3548
sVRemarkName
p3549
V\u5c0f\u8425
p3550
sVIsOwner
p3551
I0
sVSex
p3552
I2
sVStarFriend
p3553
I0
sVHideInputBarFlag
p3554
I0
sVChatRoomId
p3555
I0
sVEncryChatRoomId
p3556
g43
sVAttrStatus
p3557
I4421
sVStatues
p3558
I0
stp3559
Rp3560
I1
bag25
(g29
g30
(dp3561
VUserName
p3562
V@ff97a35e1a11872edf2ff023958af28507584c3713552443c6b7c3c6e72e56bc
p3563
sVCity
p3564
V\u54c8\u5c14\u6ee8
p3565
sVSnsFlag
p3566
I17
sVDisplayName
p3567
g43
sVUniFriend
p3568
I0
sVMemberCount
p3569
I0
sVOwnerUin
p3570
I0
sVMemberList
p3571
g41
sVAlias
p3572
g43
sVPYQuanPin
p3573
Vwangxiaodai
p3574
sVSignature
p3575
V\u603b\u6709\u4e00\u4e2a\u4eba\u4f1a\u4e0d\u5acc\u5f03\u7684\u6240\u6709\u574f\u6bdb\u75c5
p3576
sVRemarkPYInitial
p3577
VQQ
p3578
sVContactFlag
p3579
I3
sVUin
p3580
I0
sVNickName
p3581
V\u738b\u5c0f\u5446
p3582
sVAppAccountFlag
p3583
I0
sVVerifyFlag
p3584
I0
sVRemarkPYQuanPin
p3585
Vqiuqiu
p3586
sVHeadImgUrl
p3587
V/cgi-bin/mmwebwx-bin/webwxgeticon?seq=676015094&username=@ff97a35e1a11872edf2ff023958af28507584c3713552443c6b7c3c6e72e56bc&skey=@crypt_84c2f365_aeea69fa1143cd9832a4eea0fef6f1de
p3588
sVKeyWord
p3589
g43
sVProvince
p3590
V\u9ed1\u9f99\u6c5f
p3591
sVPYInitial
p3592
VWXD
p3593
sVRemarkName
p3594
V\u7403\u7403
p3595
sVIsOwner
p3596
I0
sVSex
p3597
I2
sVStarFriend
p3598
I0
sVHideInputBarFlag
p3599
I0
sVChatRoomId
p3600
I0
sVEncryChatRoomId
p3601
g43
sVAttrStatus
p3602
I103013
sVStatues
p3603
I0
stp3604
Rp3605
I1
bag25
(g29
g30
(dp3606
VUserName
p3607
V@0f5633f9a39e301d616876e204d3c332d28dfd8d27799f4cf00a85a36f2cc352
p3608
sVCity
p3609
V\u5609\u5174
p3610
sVSnsFlag
p3611
I1
sVDisplayName
p3612
g43
sVUniFriend
p3613
I0
sVMemberCount
p3614
I0
sVOwnerUin
p3615
I0
sVMemberList
p3616
g41
sVAlias
p3617
g43
sVPYQuanPin
p3618
g43
sVSignature
p3619
V\u636e\u8bf4  \u539f\u5730\u8e0f\u6b65\u662f\u6e29\u99a8\u7684\u56e0\u679c
p3620
sVRemarkPYInitial
p3621
VWK
p3622
sVContactFlag
p3623
I65537
sVUin
p3624
I0
sVNickName
p3625
V\u3002\u3002\u3002\u3002\u3002\u3002
p3626
sVAppAccountFlag
p3627
I0
sVVerifyFlag
p3628
I0
sVRemarkPYQuanPin
p3629
Vwenke
p3630
sVHeadImgUrl
p3631
V/cgi-bin/mmwebwx-bin/webwxgeticon?seq=676014868&username=@0f5633f9a39e301d616876e204d3c332d28dfd8d27799f4cf00a85a36f2cc352&skey=@crypt_84c2f365_aeea69fa1143cd9832a4eea0fef6f1de
p3632
sVKeyWord
p3633
g43
sVProvince
p3634
V\u6d59\u6c5f
p3635
sVPYInitial
p3636
g43
sVRemarkName
p3637
V\u6587\u79d1
p3638
sVIsOwner
p3639
I0
sVSex
p3640
I1
sVStarFriend
p3641
I0
sVHideInputBarFlag
p3642
I0
sVChatRoomId
p3643
I0
sVEncryChatRoomId
p3644
g43
sVAttrStatus
p3645
I135269
sVStatues
p3646
I0
stp3647
Rp3648
I1
bag25
(g29
g30
(dp3649
VUserName
p3650
V@82eaffeb5cbfd2be537efaf127167d3baec59ae377093e6a61a242ea8ac5110f
p3651
sVCity
p3652
V\u5f20\u5bb6\u754c
p3653
sVSnsFlag
p3654
I1
sVDisplayName
p3655
g43
sVUniFriend
p3656
I0
sVMemberCount
p3657
I0
sVOwnerUin
p3658
I0
sVMemberList
p3659
g41
sVAlias
p3660
g43
sVPYQuanPin
p3661
Vw
p3662
sVSignature
p3663
V\u79bb\u5f00\u7ed9\u4f60\u8d1f\u80fd\u91cf\u7684\u670b\u53cb
p3664
sVRemarkPYInitial
p3665
VWQ
p3666
sVContactFlag
p3667
I1
sVUin
p3668
I0
sVNickName
p3669
g3662
sVAppAccountFlag
p3670
I0
sVVerifyFlag
p3671
I0
sVRemarkPYQuanPin
p3672
Vwuqian
p3673
sVHeadImgUrl
p3674
V/cgi-bin/mmwebwx-bin/webwxgeticon?seq=676015996&username=@82eaffeb5cbfd2be537efaf127167d3baec59ae377093e6a61a242ea8ac5110f&skey=@crypt_84c2f365_aeea69fa1143cd9832a4eea0fef6f1de
p3675
sVKeyWord
p3676
g43
sVProvince
p3677
V\u6e56\u5357
p3678
sVPYInitial
p3679
VW
p3680
sVRemarkName
p3681
V\u5434\u5029
p3682
sVIsOwner
p3683
I0
sVSex
p3684
I2
sVStarFriend
p3685
I0
sVHideInputBarFlag
p3686
I0
sVChatRoomId
p3687
I0
sVEncryChatRoomId
p3688
g43
sVAttrStatus
p3689
I4133
sVStatues
p3690
I0
stp3691
Rp3692
I1
batp3693
Rp3694
I1
bsS'chatroomList'
p3695
g25
(g26
g27
(lp3696
g25
(citchat.storage.templates
Chatroom
p3697
g30
(dp3698
VUserName
p3699
V@@52a8615ae9a0bff2b514e043b443fe7e25bb79212187b423efbe6522added5bd
p3700
sVCity
p3701
g43
sVDisplayName
p3702
g43
sVUniFriend
p3703
I0
sS'Self'
p3704
g25
(g29
g30
(dp3705
g32
g22
sg33
g34
sg35
g34
sg36
I0
sg37
I0
sg38
g25
(g26
g27
(lp3706
tp3707
Rp3708
I1
bsg42
g43
sg44
g43
sg45
L2704422431L
sg46
I0
sg47
I0
sg48
g34
sg49
g34
sg50
g43
sg51
g43
sg52
I0
sg53
I0
sg54
I1
sg55
g34
sg56
I0
sg57
I1
sg58
I0
sg59
I0
sg60
g34
sg61
g62
sg63
I0
sg64
g65
sg66
g43
sg67
g68
sg69
I1
sg70
I0
sg71
I0
stp3709
Rp3710
I1
bsVMemberList
p3711
g25
(g26
g27
(lp3712
tp3713
Rp3714
I1
bsVPYQuanPin
p3715
g43
sVRemarkPYInitial
p3716
g43
sVSex
p3717
I0
sVAppAccountFlag
p3718
I0
sVVerifyFlag
p3719
I0
sVProvince
p3720
g43
sVKeyWord
p3721
g43
sVRemarkName
p3722
g43
sVPYInitial
p3723
g43
sVIsOwner
p3724
I0
sVChatRoomId
p3725
I0
sVHideInputBarFlag
p3726
I0
sVEncryChatRoomId
p3727
g43
sVAttrStatus
p3728
I0
sVSnsFlag
p3729
I0
sVMemberCount
p3730
I111
sVOwnerUin
p3731
I0
sVAlias
p3732
g43
sS'IsAdmin'
p3733
NsVSignature
p3734
g43
sVContactFlag
p3735
I0
sVNickName
p3736
V\u5927\u96f7\u697c
p3737
sVRemarkPYQuanPin
p3738
g43
sVHeadImgUrl
p3739
V/cgi-bin/mmwebwx-bin/webwxgetheadimg?seq=0&username=@@52a8615ae9a0bff2b514e043b443fe7e25bb79212187b423efbe6522added5bd&skey=@crypt_84c2f365_aeea69fa1143cd9832a4eea0fef6f1de
p3740
sVUin
p3741
I0
sVStarFriend
p3742
I0
sVStatues
p3743
I0
stp3744
Rp3745
I1
batp3746
Rp3747
I1
bsS'nickName'
p3748
g65
sS'mpList'
p3749
g25
(g26
g27
(lp3750
g25
(citchat.storage.templates
MassivePlatform
p3751
g30
(dp3752
VUserName
p3753
V@044f06aa279020c4e2490ae5d07c982c
p3754
sVCity
p3755
V\u6d66\u4e1c\u65b0\u533a
p3756
sVSnsFlag
p3757
I0
sVDisplayName
p3758
g43
sVUniFriend
p3759
I0
sVMemberCount
p3760
I0
sVOwnerUin
p3761
I0
sVMemberList
p3762
g41
sVAlias
p3763
g43
sVPYQuanPin
p3764
VPythonaihaozhesheou
p3765
sVSignature
p3766
V\u4eba\u751f\u82e6\u77ed\uff0c\u6211\u7528Python\u3002\u5206\u4eabPython\u76f8\u5173\u7684\u6280\u672f\u6587\u7ae0\u3001\u5de5\u5177\u8d44\u6e90\u3001\u7cbe\u9009\u8bfe\u7a0b\u3001\u89c6\u9891\u6559\u7a0b\u3001\u70ed\u70b9\u8d44\u8baf\u3001\u5b66\u4e60\u8d44\u6599\u7b49\u3002\u6bcf\u5929\u81ea\u52a8\u66f4\u65b0\u548c\u63a8\u9001\u3002
p3767
sVRemarkPYInitial
p3768
g43
sVContactFlag
p3769
I3
sVUin
p3770
I0
sVNickName
p3771
VPython\u7231\u597d\u8005\u793e\u533a
p3772
sVAppAccountFlag
p3773
I0
sVVerifyFlag
p3774
I8
sVRemarkPYQuanPin
p3775
g43
sVHeadImgUrl
p3776
V/cgi-bin/mmwebwx-bin/webwxgeticon?seq=668107505&username=@044f06aa279020c4e2490ae5d07c982c&skey=@crypt_84c2f365_aeea69fa1143cd9832a4eea0fef6f1de
p3777
sVKeyWord
p3778
Vgh_
p3779
sVProvince
p3780
V\u4e0a\u6d77
p3781
sVPYInitial
p3782
VPYTHONAHZSO
p3783
sVRemarkName
p3784
g43
sVIsOwner
p3785
I0
sVSex
p3786
I0
sVStarFriend
p3787
I0
sVHideInputBarFlag
p3788
I0
sVChatRoomId
p3789
I0
sVEncryChatRoomId
p3790
g43
sVAttrStatus
p3791
I0
sVStatues
p3792
I0
stp3793
Rp3794
I1
bag25
(g3751
g30
(dp3795
VUserName
p3796
V@ef2433059b1bdd636cd5ad9620c974b3
p3797
sVCity
p3798
V\u6d77\u6dc0
p3799
sVSnsFlag
p3800
I0
sVDisplayName
p3801
g43
sVUniFriend
p3802
I0
sVMemberCount
p3803
I0
sVOwnerUin
p3804
I0
sVMemberList
p3805
g41
sVAlias
p3806
g43
sVPYQuanPin
p3807
Vlaoshitengfei
p3808
sVSignature
p3809
V\u82f1\u6587\u6717\u8bfb\uff0c\u5171\u540c\u6210\u957f\u3002\u5e0c\u671b\u542c\u5230TA\u7684\u4f60\u559c\u6b22\u542c\u3002
p3810
sVRemarkPYInitial
p3811
g43
sVContactFlag
p3812
I3
sVUin
p3813
I0
sVNickName
p3814
V\u8001\u5e08\u817e\u98de
p3815
sVAppAccountFlag
p3816
I0
sVVerifyFlag
p3817
I8
sVRemarkPYQuanPin
p3818
g43
sVHeadImgUrl
p3819
V/cgi-bin/mmwebwx-bin/webwxgeticon?seq=652569763&username=@ef2433059b1bdd636cd5ad9620c974b3&skey=@crypt_84c2f365_aeea69fa1143cd9832a4eea0fef6f1de
p3820
sVKeyWord
p3821
Vgh_
p3822
sVProvince
p3823
V\u5317\u4eac
p3824
sVPYInitial
p3825
VLSTF
p3826
sVRemarkName
p3827
g43
sVIsOwner
p3828
I0
sVSex
p3829
I0
sVStarFriend
p3830
I0
sVHideInputBarFlag
p3831
I0
sVChatRoomId
p3832
I0
sVEncryChatRoomId
p3833
g43
sVAttrStatus
p3834
I0
sVStatues
p3835
I0
stp3836
Rp3837
I1
bag25
(g3751
g30
(dp3838
VUserName
p3839
V@51ff28b67a55d1608a27d45e12b79f35
p3840
sVCity
p3841
V\u4e1c\u57ce
p3842
sVSnsFlag
p3843
I0
sVDisplayName
p3844
g43
sVUniFriend
p3845
I0
sVMemberCount
p3846
I0
sVOwnerUin
p3847
I0
sVMemberList
p3848
g41
sVAlias
p3849
g43
sVPYQuanPin
p3850
Vtuanzhongyangxuejiaobu
p3851
sVSignature
p3852
V\u5171\u9752\u56e2\u5b66\u6821\u6218\u7ebf\u4fe1\u606f\u53d1\u5e03\u3001\u5de5\u4f5c\u4ea4\u6d41\u3001\u7ecf\u9a8c\u5206\u4eab
p3853
sVRemarkPYInitial
p3854
g43
sVContactFlag
p3855
I3
sVUin
p3856
I0
sVNickName
p3857
V\u56e2\u4e2d\u592e\u5b66\u6821\u90e8
p3858
sVAppAccountFlag
p3859
I0
sVVerifyFlag
p3860
I24
sVRemarkPYQuanPin
p3861
g43
sVHeadImgUrl
p3862
V/cgi-bin/mmwebwx-bin/webwxgeticon?seq=652567890&username=@51ff28b67a55d1608a27d45e12b79f35&skey=@crypt_84c2f365_aeea69fa1143cd9832a4eea0fef6f1de
p3863
sVKeyWord
p3864
Vgh_
p3865
sVProvince
p3866
V\u5317\u4eac
p3867
sVPYInitial
p3868
VTZYXJB
p3869
sVRemarkName
p3870
g43
sVIsOwner
p3871
I0
sVSex
p3872
I0
sVStarFriend
p3873
I0
sVHideInputBarFlag
p3874
I0
sVChatRoomId
p3875
I0
sVEncryChatRoomId
p3876
g43
sVAttrStatus
p3877
I0
sVStatues
p3878
I0
stp3879
Rp3880
I1
bag25
(g3751
g30
(dp3881
VUserName
p3882
V@d471dfd563494017aa88cb42dc4392683929a8e7ccb57abe4f101fef2f70d25a
p3883
sVCity
p3884
V\u6d77\u6dc0
p3885
sVSnsFlag
p3886
I0
sVDisplayName
p3887
g43
sVUniFriend
p3888
I0
sVMemberCount
p3889
I0
sVOwnerUin
p3890
I0
sVMemberList
p3891
g41
sVAlias
p3892
g43
sVPYQuanPin
p3893
Vyangshixinwen
p3894
sVSignature
p3895
V\u4e2d\u592e\u7535\u89c6\u53f0\u65b0\u95fb\u4e2d\u5fc3\u516c\u4f17\u53f7\uff0c\u63d0\u4f9b\u65f6\u653f\u3001\u793e\u4f1a\u3001\u8d22\u7ecf\u3001\u4f53\u80b2\u3001\u7a81\u53d1\u7b49\u65b0\u95fb\u4fe1\u606f\u4ee5\u53ca\u5929\u6c14\u3001\u8def\u51b5\u3001\u89c6\u9891\u76f4\u64ad\u7b49\u670d\u52a1\u4fe1\u606f\u3002
p3896
sVRemarkPYInitial
p3897
g43
sVContactFlag
p3898
I3
sVUin
p3899
I0
sVNickName
p3900
V\u592e\u89c6\u65b0\u95fb
p3901
sVAppAccountFlag
p3902
I0
sVVerifyFlag
p3903
I24
sVRemarkPYQuanPin
p3904
g43
sVHeadImgUrl
p3905
V/cgi-bin/mmwebwx-bin/webwxgeticon?seq=634150074&username=@d471dfd563494017aa88cb42dc4392683929a8e7ccb57abe4f101fef2f70d25a&skey=@crypt_84c2f365_aeea69fa1143cd9832a4eea0fef6f1de
p3906
sVKeyWord
p3907
g43
sVProvince
p3908
V\u5317\u4eac
p3909
sVPYInitial
p3910
VYSXW
p3911
sVRemarkName
p3912
g43
sVIsOwner
p3913
I0
sVSex
p3914
I0
sVStarFriend
p3915
I0
sVHideInputBarFlag
p3916
I0
sVChatRoomId
p3917
I0
sVEncryChatRoomId
p3918
g43
sVAttrStatus
p3919
I98305
sVStatues
p3920
I0
stp3921
Rp3922
I1
bag25
(g3751
g30
(dp3923
VUserName
p3924
V@c1d84d3f015b23702e1eb8c464f3fa58
p3925
sVCity
p3926
V\u897f\u57ce
p3927
sVSnsFlag
p3928
I0
sVDisplayName
p3929
g43
sVUniFriend
p3930
I0
sVMemberCount
p3931
I0
sVOwnerUin
p3932
I0
sVMemberList
p3933
g41
sVAlias
p3934
g43
sVPYQuanPin
p3935
Vxinhuashe
p3936
sVSignature
p3937
V\u65b0\u534e\u901a\u8baf\u793e\u5b98\u65b9\u8d26\u53f7\u3002\u65b0\u534e\u793e\u662f\u4e2d\u56fd\u56fd\u5bb6\u901a\u8baf\u793e\uff0c\u73b0\u573a\u65b0\u95fb\u3001\u539f\u521b\u65b0\u95fb\u62a5\u9053\u7684\u5927\u672c\u8425\u3002
p3938
sVRemarkPYInitial
p3939
g43
sVContactFlag
p3940
I3
sVUin
p3941
I0
sVNickName
p3942
V\u65b0\u534e\u793e
p3943
sVAppAccountFlag
p3944
I0
sVVerifyFlag
p3945
I24
sVRemarkPYQuanPin
p3946
g43
sVHeadImgUrl
p3947
V/cgi-bin/mmwebwx-bin/webwxgeticon?seq=668107966&username=@c1d84d3f015b23702e1eb8c464f3fa58&skey=@crypt_84c2f365_aeea69fa1143cd9832a4eea0fef6f1de
p3948
sVKeyWord
p3949
Vgh_
p3950
sVProvince
p3951
V\u5317\u4eac
p3952
sVPYInitial
p3953
VXHS
p3954
sVRemarkName
p3955
g43
sVIsOwner
p3956
I0
sVSex
p3957
I0
sVStarFriend
p3958
I0
sVHideInputBarFlag
p3959
I0
sVChatRoomId
p3960
I0
sVEncryChatRoomId
p3961
g43
sVAttrStatus
p3962
I0
sVStatues
p3963
I0
stp3964
Rp3965
I1
bag25
(g3751
g30
(dp3966
VUserName
p3967
V@28d383466286e77c65cef3bc9aaf1af6
p3968
sVCity
p3969
VLondon
p3970
sVSnsFlag
p3971
I0
sVDisplayName
p3972
g43
sVUniFriend
p3973
I0
sVMemberCount
p3974
I0
sVOwnerUin
p3975
I0
sVMemberList
p3976
g41
sVAlias
p3977
g43
sVPYQuanPin
p3978
Vyasaizhongguowang
p3979
sVSignature
p3980
V\u96c5\u601d\u4e2d\u56fd\u7f51\u5b98\u65b9\u5fae\u4fe1\uff1b\u4e3b\u9875\u541b\u4f1a\u7ecf\u5e38\u63a8\u9001\u4e00\u4e9b\u6709\u7528\u4e5f\u6709\u610f\u4e49\u7684\u96c5\u601d\u5c0f\u6587\u7ae0\u6216\u8005\u5c0f\u52b1\u5fd7\u5537\uff01\u66f4\u591a\u6d3b\u52a8\u4e5f\u4f1a\u53ca\u65f6\u544a\u8bc9\u5927\u5bb6\uff0c\u6b22\u8fce\u5173\u6ce8\uff01\u5f53\u7136\u4e5f\u5e0c\u671b\u4f60\u80fd\u63a8\u8350\u7ed9\u8eab\u8fb9\u7684\u670b\u53cb\uff01\uff1a-\uff09
p3981
sVRemarkPYInitial
p3982
g43
sVContactFlag
p3983
I3
sVUin
p3984
I0
sVNickName
p3985
V\u96c5\u601d\u4e2d\u56fd\u7f51
p3986
sVAppAccountFlag
p3987
I0
sVVerifyFlag
p3988
I8
sVRemarkPYQuanPin
p3989
g43
sVHeadImgUrl
p3990
V/cgi-bin/mmwebwx-bin/webwxgeticon?seq=642270302&username=@28d383466286e77c65cef3bc9aaf1af6&skey=@crypt_84c2f365_aeea69fa1143cd9832a4eea0fef6f1de
p3991
sVKeyWord
p3992
Vgh_
p3993
sVProvince
p3994
VEngland
p3995
sVPYInitial
p3996
VYSZGW
p3997
sVRemarkName
p3998
g43
sVIsOwner
p3999
I0
sVSex
p4000
I0
sVStarFriend
p4001
I0
sVHideInputBarFlag
p4002
I0
sVChatRoomId
p4003
I0
sVEncryChatRoomId
p4004
g43
sVAttrStatus
p4005
I0
sVStatues
p4006
I0
stp4007
Rp4008
I1
bag25
(g3751
g30
(dp4009
VUserName
p4010
V@95c99e6a4913c10adf5d17145b0ad7fe
p4011
sVCity
p4012
V\u671d\u9633
p4013
sVSnsFlag
p4014
I0
sVDisplayName
p4015
g43
sVUniFriend
p4016
I0
sVMemberCount
p4017
I0
sVOwnerUin
p4018
I0
sVMemberList
p4019
g41
sVAlias
p4020
g43
sVPYQuanPin
p4021
Vhafoshangyepinglun
p4022
sVSignature
p4023
V\u300a\u54c8\u4f5b\u5546\u4e1a\u8bc4\u8bba\u300b( Harvard Business Review\uff0c\u7b80\u79f0 HBR )\u521b\u5efa\u4e8e1922\u5e74\uff0c\u662f\u54c8\u4f5b\u5546\u5b66\u9662\u7684\u6807\u5fd7\u6027\u6742\u5fd7\uff0c\u88ab\u5168\u7403\u5546\u754c\u8a89\u4e3a\u201c\u7ba1\u7406\u5723\u7ecf\u201d\uff0c\u4f17\u591a\u8033\u719f\u80fd\u8be6\u7684\u7ba1\u7406\u601d\u60f3\u5bb6\u3001\u7ba1\u7406\u7406\u8bba\u5747\u51fa\u81ea\u300a\u54c8\u4f5b\u5546\u4e1a\u8bc4\u8bba\u300b\u3002\u66f4\u591a\u7ba1\u7406\u667a\u6167\uff0c\u8bf7\u767b\u5f55\u5b98\u65b9\u7f51\u7ad9\uff1awww.hbrchina.org\u3002
p4024
sVRemarkPYInitial
p4025
g43
sVContactFlag
p4026
I3
sVUin
p4027
I0
sVNickName
p4028
V\u54c8\u4f5b\u5546\u4e1a\u8bc4\u8bba
p4029
sVAppAccountFlag
p4030
I0
sVVerifyFlag
p4031
I24
sVRemarkPYQuanPin
p4032
g43
sVHeadImgUrl
p4033
V/cgi-bin/mmwebwx-bin/webwxgeticon?seq=637460137&username=@95c99e6a4913c10adf5d17145b0ad7fe&skey=@crypt_84c2f365_aeea69fa1143cd9832a4eea0fef6f1de
p4034
sVKeyWord
p4035
Vgh_
p4036
sVProvince
p4037
V\u5317\u4eac
p4038
sVPYInitial
p4039
VHFSYPL
p4040
sVRemarkName
p4041
g43
sVIsOwner
p4042
I0
sVSex
p4043
I0
sVStarFriend
p4044
I0
sVHideInputBarFlag
p4045
I0
sVChatRoomId
p4046
I0
sVEncryChatRoomId
p4047
g43
sVAttrStatus
p4048
I0
sVStatues
p4049
I0
stp4050
Rp4051
I1
bag25
(g3751
g30
(dp4052
VUserName
p4053
V@493ea6d566482fc31480e91ad8e49aab
p4054
sVCity
p4055
V\u6d77\u6dc0
p4056
sVSnsFlag
p4057
I0
sVDisplayName
p4058
g43
sVUniFriend
p4059
I0
sVMemberCount
p4060
I0
sVOwnerUin
p4061
I0
sVMemberList
p4062
g41
sVAlias
p4063
g43
sVPYQuanPin
p4064
Vshujuan
p4065
sVSignature
p4066
V\u5982\u679c\u77e5\u8bc6\u662f\u901a\u5411\u672a\u6765\u7684\u5927\u95e8\uff0c\u6211\u4eec\u613f\u610f\u4e3a\u4f60\u6253\u9020\u4e00\u628a\u6253\u5f00\u8fd9\u6247\u95e8\u7684\u94a5\u5319\uff01
p4067
sVRemarkPYInitial
p4068
g43
sVContactFlag
p4069
I3
sVUin
p4070
I0
sVNickName
p4071
V\u4e66\u5708
p4072
sVAppAccountFlag
p4073
I0
sVVerifyFlag
p4074
I24
sVRemarkPYQuanPin
p4075
g43
sVHeadImgUrl
p4076
V/cgi-bin/mmwebwx-bin/webwxgeticon?seq=652566725&username=@493ea6d566482fc31480e91ad8e49aab&skey=@crypt_84c2f365_aeea69fa1143cd9832a4eea0fef6f1de
p4077
sVKeyWord
p4078
Vgh_
p4079
sVProvince
p4080
V\u5317\u4eac
p4081
sVPYInitial
p4082
VSJ
p4083
sVRemarkName
p4084
g43
sVIsOwner
p4085
I0
sVSex
p4086
I0
sVStarFriend
p4087
I0
sVHideInputBarFlag
p4088
I0
sVChatRoomId
p4089
I0
sVEncryChatRoomId
p4090
g43
sVAttrStatus
p4091
I0
sVStatues
p4092
I0
stp4093
Rp4094
I1
bag25
(g3751
g30
(dp4095
VUserName
p4096
V@c2e46fd92930efcfadcf5a2da121b911
p4097
sVCity
p4098
g43
sVSnsFlag
p4099
I0
sVDisplayName
p4100
g43
sVUniFriend
p4101
I0
sVMemberCount
p4102
I0
sVOwnerUin
p4103
I0
sVMemberList
p4104
g41
sVAlias
p4105
g43
sVPYQuanPin
p4106
Vsanxingqingshu
p4107
sVSignature
p4108
V\u60f3\u5199\u4e00\u5c01\u60c5\u4e66\u7ed9\u4f60\uff0c\u4e09\u884c\u5982\u4f55\u9053\u7684\u5c3d\u3002\u6bcf\u665a\u4e5d\u70b9\u63a8\u9001\u4f18\u96c5\u5c0f\u6587\uff0c\u6709\u6ca1\u6709\u90a3\u4e48\u4e00\u53e5\u8f7b\u8f7b\u6263\u4f60\u5fc3\u95e8\uff1f
p4109
sVRemarkPYInitial
p4110
g43
sVContactFlag
p4111
I3
sVUin
p4112
I0
sVNickName
p4113
V\u4e09\u884c\u60c5\u4e66
p4114
sVAppAccountFlag
p4115
I0
sVVerifyFlag
p4116
I8
sVRemarkPYQuanPin
p4117
g43
sVHeadImgUrl
p4118
V/cgi-bin/mmwebwx-bin/webwxgeticon?seq=634153390&username=@c2e46fd92930efcfadcf5a2da121b911&skey=@crypt_84c2f365_aeea69fa1143cd9832a4eea0fef6f1de
p4119
sVKeyWord
p4120
Vgh_
p4121
sVProvince
p4122
VColoane
p4123
sVPYInitial
p4124
VSXQS
p4125
sVRemarkName
p4126
g43
sVIsOwner
p4127
I0
sVSex
p4128
I0
sVStarFriend
p4129
I0
sVHideInputBarFlag
p4130
I0
sVChatRoomId
p4131
I0
sVEncryChatRoomId
p4132
g43
sVAttrStatus
p4133
I0
sVStatues
p4134
I0
stp4135
Rp4136
I1
bag25
(g3751
g30
(dp4137
VUserName
p4138
V@dd0c7be125ffcb6e82cc6d13c83993f2
p4139
sVCity
p4140
V\u6c88\u9633
p4141
sVSnsFlag
p4142
I0
sVDisplayName
p4143
g43
sVUniFriend
p4144
I0
sVMemberCount
p4145
I0
sVOwnerUin
p4146
I0
sVMemberList
p4147
g41
sVAlias
p4148
g43
sVPYQuanPin
p4149
VSTFsitanfu
p4150
sVSignature
p4151
VSTF\u65af\u5766\u798f\uff08\u6c88\u9633\u65af\u5766\u798f\u6559\u80b2\u54a8\u8be2\u6709\u9650\u516c\u53f8\uff09\u662f\u4e00\u6240\u4e13\u4e1aSAT\u57f9\u8bad\u673a\u6784\uff0c\u662fSAT\u9ad8\u5206\u7684\u7f14\u9020\u8005\uff0c\u662f\u7f8e\u56fd\u9ad8\u8003\u7684\u5021\u5bfc\u8005\u3002
p4152
sVRemarkPYInitial
p4153
g43
sVContactFlag
p4154
I3
sVUin
p4155
I0
sVNickName
p4156
VSTF\u65af\u5766\u798f
p4157
sVAppAccountFlag
p4158
I0
sVVerifyFlag
p4159
I8
sVRemarkPYQuanPin
p4160
g43
sVHeadImgUrl
p4161
V/cgi-bin/mmwebwx-bin/webwxgeticon?seq=634153406&username=@dd0c7be125ffcb6e82cc6d13c83993f2&skey=@crypt_84c2f365_aeea69fa1143cd9832a4eea0fef6f1de
p4162
sVKeyWord
p4163
Vgh_
p4164
sVProvince
p4165
V\u8fbd\u5b81
p4166
sVPYInitial
p4167
VSTFSTF
p4168
sVRemarkName
p4169
g43
sVIsOwner
p4170
I0
sVSex
p4171
I0
sVStarFriend
p4172
I0
sVHideInputBarFlag
p4173
I0
sVChatRoomId
p4174
I0
sVEncryChatRoomId
p4175
g43
sVAttrStatus
p4176
I0
sVStatues
p4177
I0
stp4178
Rp4179
I1
bag25
(g3751
g30
(dp4180
VUserName
p4181
V@1e62ae962f8c43bbbf373a25afdb3303
p4182
sVCity
p4183
V\u90d1\u5dde
p4184
sVSnsFlag
p4185
I0
sVDisplayName
p4186
g43
sVUniFriend
p4187
I0
sVMemberCount
p4188
I0
sVOwnerUin
p4189
I0
sVMemberList
p4190
g41
sVAlias
p4191
g43
sVPYQuanPin
p4192
Vzhengzhouqinggongyexueyuantuanwei
p4193
sVSignature
p4194
V\u90d1\u5dde\u8f7b\u5de5\u4e1a\u5b66\u9662\u56e2\u59d4\u662f\u90d1\u5dde\u8f7b\u9662\u5148\u8fdb\u9752\u5e74\u7684\u7fa4\u4f17\u7ec4\u7ec7\uff0c\u4f5c\u4e3a\u515a\u7684\u52a9\u624b\u548c\u540e\u5907\u519b\uff0c\u62c5\u8d1f\u7740\u56e2\u7ed3\u548c\u6559\u80b2\u90d1\u5dde\u8f7b\u5de5\u4e1a\u5b66\u9662\u5e7f\u5927\u9752\u5e74\u5b66\u751f\uff0c\u6267\u884c\u515a\u7684\u9752\u5e74\u5de5\u4f5c\u65b9\u9488\uff0c\u7ed3\u5408\u9ad8\u6821\u7279\u70b9\uff0c\u521b\u9020\u6027\u5730\u5f00\u5c55\u5de5\u4f5c\u7684\u804c\u80fd\u3002
p4195
sVRemarkPYInitial
p4196
g43
sVContactFlag
p4197
I3
sVUin
p4198
I0
sVNickName
p4199
V\u90d1\u5dde\u8f7b\u5de5\u4e1a\u5b66\u9662\u56e2\u59d4
p4200
sVAppAccountFlag
p4201
I0
sVVerifyFlag
p4202
I24
sVRemarkPYQuanPin
p4203
g43
sVHeadImgUrl
p4204
V/cgi-bin/mmwebwx-bin/webwxgeticon?seq=652561232&username=@1e62ae962f8c43bbbf373a25afdb3303&skey=@crypt_84c2f365_aeea69fa1143cd9832a4eea0fef6f1de
p4205
sVKeyWord
p4206
Vgh_
p4207
sVProvince
p4208
V\u6cb3\u5357
p4209
sVPYInitial
p4210
VZZQGYXYTW
p4211
sVRemarkName
p4212
g43
sVIsOwner
p4213
I0
sVSex
p4214
I0
sVStarFriend
p4215
I0
sVHideInputBarFlag
p4216
I0
sVChatRoomId
p4217
I0
sVEncryChatRoomId
p4218
g43
sVAttrStatus
p4219
I0
sVStatues
p4220
I0
stp4221
Rp4222
I1
bag25
(g3751
g30
(dp4223
VUserName
p4224
V@abce8b987d900430b09c507353ffa117
p4225
sVCity
p4226
V\u957f\u6c99
p4227
sVSnsFlag
p4228
I0
sVDisplayName
p4229
g43
sVUniFriend
p4230
I0
sVMemberCount
p4231
I0
sVOwnerUin
p4232
I0
sVMemberList
p4233
g41
sVAlias
p4234
g43
sVPYQuanPin
p4235
Vwanzhuaidaxue
p4236
sVSignature
p4237
V\u4e2d\u56fd\u7b2c\u4e00\u9ad8\u6821\u65b0\u5a92\u4f53\uff0c130\u4e07\u5927\u5b66\u751f\u7c89\u4e1d\uff01\u514d\u8d39\u9001\u767e\u5ea6\u6587\u5e93500\u4e0b\u8f7d\u5238\uff0c\u53ef\u67e51000\u591a\u6240\u9ad8\u6821\u6210\u7ee9\u3001\u8bfe\u8868\u3001\u6302\u79d1\u7387\u3001\u7a7a\u6559\u5ba4\uff01\u53d1\u7167\u7247\u6d4b\u989c\u503c\uff0c\u770b\u5168\u56fd\u6821\u82b1\u6821\u8349TOP100\uff0c\u73a9\u684c\u6e38\uff08\u72fc\u4eba\u6740\u3001\u6740\u4eba\u6e38\u620f\u3001\u8c01\u662f\u5367\u5e95\uff09\uff01
p4238
sVRemarkPYInitial
p4239
g43
sVContactFlag
p4240
I3
sVUin
p4241
I0
sVNickName
p4242
V\u73a9\u8f6c\u5927\u5b66
p4243
sVAppAccountFlag
p4244
I0
sVVerifyFlag
p4245
I24
sVRemarkPYQuanPin
p4246
g43
sVHeadImgUrl
p4247
V/cgi-bin/mmwebwx-bin/webwxgeticon?seq=652563270&username=@abce8b987d900430b09c507353ffa117&skey=@crypt_84c2f365_aeea69fa1143cd9832a4eea0fef6f1de
p4248
sVKeyWord
p4249
Vgh_
p4250
sVProvince
p4251
V\u6e56\u5357
p4252
sVPYInitial
p4253
VWZDX
p4254
sVRemarkName
p4255
g43
sVIsOwner
p4256
I0
sVSex
p4257
I0
sVStarFriend
p4258
I0
sVHideInputBarFlag
p4259
I0
sVChatRoomId
p4260
I0
sVEncryChatRoomId
p4261
g43
sVAttrStatus
p4262
I0
sVStatues
p4263
I0
stp4264
Rp4265
I1
bag25
(g3751
g30
(dp4266
VUserName
p4267
V@c52dc3b4bdad6c42d57e747278db26b4
p4268
sVCity
p4269
V\u6d77\u6dc0
p4270
sVSnsFlag
p4271
I0
sVDisplayName
p4272
g43
sVUniFriend
p4273
I0
sVMemberCount
p4274
I0
sVOwnerUin
p4275
I0
sVMemberList
p4276
g41
sVAlias
p4277
g43
sVPYQuanPin
p4278
Vxuepoxieluntan
p4279
sVSignature
p4280
V\u5b66\u7834\u89e3\u8bba\u575b\u62e5\u6709\u5927\u91cf\u8f6f\u4ef6\u52a0\u89e3\u5bc6\u6559\u7a0b\uff0c\u53d7\u5230\u5e7f\u5927\u8f6f\u4ef6\u5f00\u53d1\u8005\u4e0e\u4ee3\u7801\u9006\u5411\u5206\u6790\u7231\u597d\u8005\u7684\u4e00\u81f4\u597d\u8bc4\u3002\u5b66\u4e60\u7834\u89e3\u65b9\u6cd5\uff0c\u4f7f\u8f6f\u4ef6\u5f00\u53d1\u8005\u80fd\u591f\u66f4\u597d\u7684\u5b8c\u5584\u8f6f\u4ef6\u6f0f\u6d1e\uff0c\u5927\u5e45\u5ea6\u63d0\u9ad8\u8f6f\u4ef6\u9632\u7834\u89e3\u5f3a\u5ea6\uff0c\u5145\u5206\u4fdd\u62a4\u8f6f\u4ef6\u5f00\u53d1\u8005\u7684\u5229\u76ca\u4e0e\u7248\u6743\u3002
p4281
sVRemarkPYInitial
p4282
g43
sVContactFlag
p4283
I3
sVUin
p4284
I0
sVNickName
p4285
V\u5b66\u7834\u89e3\u8bba\u575b
p4286
sVAppAccountFlag
p4287
I0
sVVerifyFlag
p4288
I8
sVRemarkPYQuanPin
p4289
g43
sVHeadImgUrl
p4290
V/cgi-bin/mmwebwx-bin/webwxgeticon?seq=652564207&username=@c52dc3b4bdad6c42d57e747278db26b4&skey=@crypt_84c2f365_aeea69fa1143cd9832a4eea0fef6f1de
p4291
sVKeyWord
p4292
Vgh_
p4293
sVProvince
p4294
V\u5317\u4eac
p4295
sVPYInitial
p4296
VXPXLT
p4297
sVRemarkName
p4298
g43
sVIsOwner
p4299
I0
sVSex
p4300
I0
sVStarFriend
p4301
I0
sVHideInputBarFlag
p4302
I0
sVChatRoomId
p4303
I0
sVEncryChatRoomId
p4304
g43
sVAttrStatus
p4305
I0
sVStatues
p4306
I0
stp4307
Rp4308
I1
bag25
(g3751
g30
(dp4309
VUserName
p4310
V@d654bdfe82773509879cd497d41d4cbd
p4311
sVCity
p4312
V\u671d\u9633
p4313
sVSnsFlag
p4314
I0
sVDisplayName
p4315
g43
sVUniFriend
p4316
I0
sVMemberCount
p4317
I0
sVOwnerUin
p4318
I0
sVMemberList
p4319
g41
sVAlias
p4320
g43
sVPYQuanPin
p4321
Vwuaipoxieluntan
p4322
sVSignature
p4323
V\u543e\u7231\u7834\u89e3\u8bba\u575b\u81f4\u529b\u4e8e\u8f6f\u4ef6\u5b89\u5168\u4e0e\u75c5\u6bd2\u5206\u6790\u7684\u524d\u6cbf\uff0c\u4e30\u5bcc\u7684\u6280\u672f\u7248\u5757\u4ea4\u76f8\u8f89\u6620\uff0c\u7531\u65e0\u6570\u70ed\u8877\u4e8e\u8f6f\u4ef6\u52a0\u5bc6\u89e3\u5bc6\u53ca\u53cd\u75c5\u6bd2\u7231\u597d\u8005\u5171\u540c\u7ef4\u62a4\uff0c\u7559\u7ed9\u4e16\u754c\u4e00\u62b9\u503c\u5f97\u767e\u5e74\u56de\u7738\u7684\u60ca\u8273\uff0c\u6c89\u6dc0\u767e\u5e74\u6765\u8ba1\u7b97\u673a\u5e94\u7528\u4e4b\u7cbe\u534e\u4e0e\u4f18\u96c5\uff0c\u4efb\u5c81\u6708\u6d41\u8f6c\uff0c\u4f4e\u8c03\u800c\u5962\u534e\u7684\u6280\u672f\u4ea4\u6d41\u4e0e\u63a2\u7d22\u5374\u662f\u4e98\u53e4\u4e0d\u53d8\u3002
p4324
sVRemarkPYInitial
p4325
g43
sVContactFlag
p4326
I3
sVUin
p4327
I0
sVNickName
p4328
V\u543e\u7231\u7834\u89e3\u8bba\u575b
p4329
sVAppAccountFlag
p4330
I0
sVVerifyFlag
p4331
I8
sVRemarkPYQuanPin
p4332
g43
sVHeadImgUrl
p4333
V/cgi-bin/mmwebwx-bin/webwxgeticon?seq=652564291&username=@d654bdfe82773509879cd497d41d4cbd&skey=@crypt_84c2f365_aeea69fa1143cd9832a4eea0fef6f1de
p4334
sVKeyWord
p4335
Vgh_
p4336
sVProvince
p4337
V\u5317\u4eac
p4338
sVPYInitial
p4339
VWAPXLT
p4340
sVRemarkName
p4341
g43
sVIsOwner
p4342
I0
sVSex
p4343
I0
sVStarFriend
p4344
I0
sVHideInputBarFlag
p4345
I0
sVChatRoomId
p4346
I0
sVEncryChatRoomId
p4347
g43
sVAttrStatus
p4348
I1
sVStatues
p4349
I0
stp4350
Rp4351
I1
bag25
(g3751
g30
(dp4352
VUserName
p4353
V@48bb3942e0b90cab2b34b3f004bd987e
p4354
sVCity
p4355
V\u6d77\u6dc0
p4356
sVSnsFlag
p4357
I0
sVDisplayName
p4358
g43
sVUniFriend
p4359
I0
sVMemberCount
p4360
I0
sVOwnerUin
p4361
I0
sVMemberList
p4362
g41
sVAlias
p4363
g43
sVPYQuanPin
p4364
Vjikexueyuan
p4365
sVSignature
p4366
V\u6781\u5ba2\u5b66\u9662\u81f4\u529b\u4e8e\u201c\u8ba9\u5b66\u4e60\u66f4\u6709\u6548\u201d\uff0c\u4ee5\u201c\u65b0\u201d\u3001\u201c\u5b9e\u6218\u201d\u3001\u201c\u4f53\u7cfb\u5316\u201d\u4e3a\u7279\u8272\uff0c\u5728\u8fd9\u91cc\u53d1\u5e03\u6700\u65b0\u7684\u8bfe\u7a0b\u3001\u6d3b\u52a8\u3001\u4f18\u60e0\u7b49\u4fe1\u606f\uff0c\u6b22\u8fce\u5927\u5bb6\u548c\u6211\u4eec\u591a\u6c9f\u901a\u548c\u4ea4\u6d41\u3002
p4367
sVRemarkPYInitial
p4368
g43
sVContactFlag
p4369
I3
sVUin
p4370
I0
sVNickName
p4371
V\u6781\u5ba2\u5b66\u9662
p4372
sVAppAccountFlag
p4373
I0
sVVerifyFlag
p4374
I24
sVRemarkPYQuanPin
p4375
g43
sVHeadImgUrl
p4376
V/cgi-bin/mmwebwx-bin/webwxgeticon?seq=652566248&username=@48bb3942e0b90cab2b34b3f004bd987e&skey=@crypt_84c2f365_aeea69fa1143cd9832a4eea0fef6f1de
p4377
sVKeyWord
p4378
Vgh_
p4379
sVProvince
p4380
V\u5317\u4eac
p4381
sVPYInitial
p4382
VJKXY
p4383
sVRemarkName
p4384
g43
sVIsOwner
p4385
I0
sVSex
p4386
I0
sVStarFriend
p4387
I0
sVHideInputBarFlag
p4388
I0
sVChatRoomId
p4389
I0
sVEncryChatRoomId
p4390
g43
sVAttrStatus
p4391
I0
sVStatues
p4392
I0
stp4393
Rp4394
I1
bag25
(g3751
g30
(dp4395
VUserName
p4396
V@f0d29391d3ef967bac738bbf84e4cfcf
p4397
sVCity
p4398
V\u8d35\u9633
p4399
sVSnsFlag
p4400
I0
sVDisplayName
p4401
g43
sVUniFriend
p4402
I0
sVMemberCount
p4403
I0
sVOwnerUin
p4404
I0
sVMemberList
p4405
g41
sVAlias
p4406
g43
sVPYQuanPin
p4407
Vxuegao
p4408
sVSignature
p4409
V\u4e13\u6ce8\u4e8e\u63d0\u4f9b\u5206\u4eab\u514d\u8d39\u7684\u8bfe\u540e\u4e60\u9898\u7b54\u6848\u3001\u8003\u8bd5\u54a8\u8be2\u548c\u8003\u8bd5\u9898\u5e93\u3001\u4ee5\u53ca\u5404\u7c7b\u5de5\u5177\u8f6f\u4ef6\u3001\u89c6\u9891\u8d44\u6599\u548c\u8003\u8bd5\u8d44\u6599\u7b49...
p4410
sVRemarkPYInitial
p4411
g43
sVContactFlag
p4412
I1
sVUin
p4413
I0
sVNickName
p4414
V\u5b66\u7cd5
p4415
sVAppAccountFlag
p4416
I0
sVVerifyFlag
p4417
I24
sVRemarkPYQuanPin
p4418
g43
sVHeadImgUrl
p4419
V/cgi-bin/mmwebwx-bin/webwxgeticon?seq=643730357&username=@f0d29391d3ef967bac738bbf84e4cfcf&skey=@crypt_84c2f365_aeea69fa1143cd9832a4eea0fef6f1de
p4420
sVKeyWord
p4421
Vgh_
p4422
sVProvince
p4423
V\u8d35\u5dde
p4424
sVPYInitial
p4425
VXG
p4426
sVRemarkName
p4427
g43
sVIsOwner
p4428
I0
sVSex
p4429
I0
sVStarFriend
p4430
I0
sVHideInputBarFlag
p4431
I0
sVChatRoomId
p4432
I0
sVEncryChatRoomId
p4433
g43
sVAttrStatus
p4434
I0
sVStatues
p4435
I0
stp4436
Rp4437
I1
bag25
(g3751
g30
(dp4438
VUserName
p4439
V@3e38ba15958faf6adc1783f822bd5dd1
p4440
sVCity
p4441
V\u90d1\u5dde
p4442
sVSnsFlag
p4443
I0
sVDisplayName
p4444
g43
sVUniFriend
p4445
I0
sVMemberCount
p4446
I0
sVOwnerUin
p4447
I0
sVMemberList
p4448
g41
sVAlias
p4449
g43
sVPYQuanPin
p4450
Vzhenghangqingnian
p4451
sVSignature
p4452
V\u56e2\u5b66\u4e4b\u7a97
p4453
sVRemarkPYInitial
p4454
g43
sVContactFlag
p4455
I3
sVUin
p4456
I0
sVNickName
p4457
V\u90d1\u822a\u9752\u5e74
p4458
sVAppAccountFlag
p4459
I0
sVVerifyFlag
p4460
I24
sVRemarkPYQuanPin
p4461
g43
sVHeadImgUrl
p4462
V/cgi-bin/mmwebwx-bin/webwxgeticon?seq=652567884&username=@3e38ba15958faf6adc1783f822bd5dd1&skey=@crypt_84c2f365_aeea69fa1143cd9832a4eea0fef6f1de
p4463
sVKeyWord
p4464
Vgh_
p4465
sVProvince
p4466
V\u6cb3\u5357
p4467
sVPYInitial
p4468
VZHQN
p4469
sVRemarkName
p4470
g43
sVIsOwner
p4471
I0
sVSex
p4472
I0
sVStarFriend
p4473
I0
sVHideInputBarFlag
p4474
I0
sVChatRoomId
p4475
I0
sVEncryChatRoomId
p4476
g43
sVAttrStatus
p4477
I0
sVStatues
p4478
I0
stp4479
Rp4480
I1
bag25
(g3751
g30
(dp4481
VUserName
p4482
V@bab09bf7a4b3fa08103f566334109e55
p4483
sVCity
p4484
V\u6210\u90fd
p4485
sVSnsFlag
p4486
I0
sVDisplayName
p4487
g43
sVUniFriend
p4488
I0
sVMemberCount
p4489
I0
sVOwnerUin
p4490
I0
sVMemberList
p4491
g41
sVAlias
p4492
g43
sVPYQuanPin
p4493
Vshiyanlou
p4494
sVSignature
p4495
V\u5b9e\u9a8c\u697c\uff08www.shiyanlou.com\uff09\u5b98\u5fae\uff0c\u9762\u5411IT\u5b66\u4e60\u8005\uff0c\u6bcf\u5929\u5206\u4eabLinux\u3001Python\u3001Java\u3001Android\u3001WEB\u2026\u7b49IT\u7f16\u7a0b\u5e72\u8d27+\u6559\u7a0b\u3002\u5b9e\u9a8c\u697c\u2014\u2014\u4e13\u4e1a\u7684IT\u5728\u7ebf\u5b9e\u8bad\u5e73\u53f0\uff0c\u7f51\u7ad9\u63d0\u4f9b\u5728\u7ebf\u5f00\u53d1\u73af\u5883\u53ca\u8bfe\u7a0b\uff0c\u8ba9\u7a0b\u5e8f\u5458\u5b66\u4e60\u66f4\u9ad8\u6548\uff01
p4496
sVRemarkPYInitial
p4497
g43
sVContactFlag
p4498
I3
sVUin
p4499
I0
sVNickName
p4500
V\u5b9e\u9a8c\u697c
p4501
sVAppAccountFlag
p4502
I0
sVVerifyFlag
p4503
I24
sVRemarkPYQuanPin
p4504
g43
sVHeadImgUrl
p4505
V/cgi-bin/mmwebwx-bin/webwxgeticon?seq=652568873&username=@bab09bf7a4b3fa08103f566334109e55&skey=@crypt_84c2f365_aeea69fa1143cd9832a4eea0fef6f1de
p4506
sVKeyWord
p4507
Vgh_
p4508
sVProvince
p4509
V\u56db\u5ddd
p4510
sVPYInitial
p4511
VSYL
p4512
sVRemarkName
p4513
g43
sVIsOwner
p4514
I0
sVSex
p4515
I0
sVStarFriend
p4516
I0
sVHideInputBarFlag
p4517
I0
sVChatRoomId
p4518
I0
sVEncryChatRoomId
p4519
g43
sVAttrStatus
p4520
I0
sVStatues
p4521
I0
stp4522
Rp4523
I1
bag25
(g3751
g30
(dp4524
VUserName
p4525
V@efa25467d6edc562874f458c33f243e7
p4526
sVCity
p4527
V\u6d77\u6dc0
p4528
sVSnsFlag
p4529
I0
sVDisplayName
p4530
g43
sVUniFriend
p4531
I0
sVMemberCount
p4532
I0
sVOwnerUin
p4533
I0
sVMemberList
p4534
g41
sVAlias
p4535
g43
sVPYQuanPin
p4536
Vyoudaokaoshensiliuji
p4537
sVSignature
p4538
V\u6709\u9053\u8003\u795e\uff0c\u4f60\u7684\u8003\u8bd5\u901a\u5173\u5b88\u62a4\u795e\u3002 \u6bcf\u5929\u63a8\u9001\u6709\u8da3\u53c8\u5b9e\u5728\u7684\u82f1\u8bed\u5b66\u4e60\u5e72\u8d27\uff0c\u65b0\u9c9c\u51c6\u786e\u7684\u771f\u9898\u8bb2\u4e49\u4e0e\u7b54\u6848\uff0c\u914d\u5408\u7cbe\u76ca\u9ad8\u6548\u7684\u8bfe\u7a0b\u8bbe\u7f6e\u5e26\u4f60\u987a\u5229\u901a\u5173\uff01
p4539
sVRemarkPYInitial
p4540
g43
sVContactFlag
p4541
I3
sVUin
p4542
I0
sVNickName
p4543
V\u6709\u9053\u8003\u795e\u56db\u516d\u7ea7
p4544
sVAppAccountFlag
p4545
I0
sVVerifyFlag
p4546
I24
sVRemarkPYQuanPin
p4547
g43
sVHeadImgUrl
p4548
V/cgi-bin/mmwebwx-bin/webwxgeticon?seq=652569768&username=@efa25467d6edc562874f458c33f243e7&skey=@crypt_84c2f365_aeea69fa1143cd9832a4eea0fef6f1de
p4549
sVKeyWord
p4550
Vgh_
p4551
sVProvince
p4552
V\u5317\u4eac
p4553
sVPYInitial
p4554
VYDKSSLJ
p4555
sVRemarkName
p4556
g43
sVIsOwner
p4557
I0
sVSex
p4558
I0
sVStarFriend
p4559
I0
sVHideInputBarFlag
p4560
I0
sVChatRoomId
p4561
I0
sVEncryChatRoomId
p4562
g43
sVAttrStatus
p4563
I0
sVStatues
p4564
I0
stp4565
Rp4566
I1
bag25
(g3751
g30
(dp4567
VUserName
p4568
V@c14d88f13c08cb4c7b4dd6a7668fdedf
p4569
sVCity
p4570
V\u676d\u5dde
p4571
sVSnsFlag
p4572
I0
sVDisplayName
p4573
g43
sVUniFriend
p4574
I0
sVMemberCount
p4575
I0
sVOwnerUin
p4576
I0
sVMemberList
p4577
g41
sVAlias
p4578
g43
sVPYQuanPin
p4579
Vchenqulaoshi
p4580
sVSignature
p4581
V\u6211\u4eec\u4e00\u8d77\u53bb\u65c5\u6e38\u3001\u73a9\u8bed\u8a00\u548c\u804a\u6587\u5316\u3002\u8003\u795e\u56e2\u961f\u6838\u5fc3\u6210\u5458\uff01\u5fae\u535a\uff1a@\u9648\u66f2Frank
p4582
sVRemarkPYInitial
p4583
g43
sVContactFlag
p4584
I3
sVUin
p4585
I0
sVNickName
p4586
V\u9648\u66f2\u8001\u5e08
p4587
sVAppAccountFlag
p4588
I0
sVVerifyFlag
p4589
I8
sVRemarkPYQuanPin
p4590
g43
sVHeadImgUrl
p4591
V/cgi-bin/mmwebwx-bin/webwxgeticon?seq=652569800&username=@c14d88f13c08cb4c7b4dd6a7668fdedf&skey=@crypt_84c2f365_aeea69fa1143cd9832a4eea0fef6f1de
p4592
sVKeyWord
p4593
Vgh_
p4594
sVProvince
p4595
V\u6d59\u6c5f
p4596
sVPYInitial
p4597
VCQLS
p4598
sVRemarkName
p4599
g43
sVIsOwner
p4600
I0
sVSex
p4601
I0
sVStarFriend
p4602
I0
sVHideInputBarFlag
p4603
I0
sVChatRoomId
p4604
I0
sVEncryChatRoomId
p4605
g43
sVAttrStatus
p4606
I0
sVStatues
p4607
I0
stp4608
Rp4609
I1
bag25
(g3751
g30
(dp4610
VUserName
p4611
V@15c152617f980e33f39845f476f8dc60
p4612
sVCity
p4613
V\u6d77\u6dc0
p4614
sVSnsFlag
p4615
I0
sVDisplayName
p4616
g43
sVUniFriend
p4617
I0
sVMemberCount
p4618
I0
sVOwnerUin
p4619
I0
sVMemberList
p4620
g41
sVAlias
p4621
g43
sVPYQuanPin
p4622
Vlaoshiwangfei
p4623
sVSignature
p4624
V\u8003\u795e\u56e2\u961f\u521b\u59cb\u4eba\u4e4b\u4e00\uff1b\u7f51\u6613\u6709\u9053\u8003\u795e\u6559\u5e08\uff1b\u524d\u65b0\u4e1c\u65b9\u540d\u5e08\uff1bCET/TEM/\u8003\u7814\u8f85\u5bfc\u4e13\u5bb6\uff1b\u5199\u4f5c\u4e00\u59d0\uff0c\u62bc\u9898\u5973\u738b\u3002\u65b0\u6d6a\u5fae\u535a@\u8001\u5e08\u738b\u83f2
p4625
sVRemarkPYInitial
p4626
g43
sVContactFlag
p4627
I3
sVUin
p4628
I0
sVNickName
p4629
V\u8001\u5e08\u738b\u83f2
p4630
sVAppAccountFlag
p4631
I0
sVVerifyFlag
p4632
I8
sVRemarkPYQuanPin
p4633
g43
sVHeadImgUrl
p4634
V/cgi-bin/mmwebwx-bin/webwxgeticon?seq=652570047&username=@15c152617f980e33f39845f476f8dc60&skey=@crypt_84c2f365_aeea69fa1143cd9832a4eea0fef6f1de
p4635
sVKeyWord
p4636
Vgh_
p4637
sVProvince
p4638
V\u5317\u4eac
p4639
sVPYInitial
p4640
VLSWF
p4641
sVRemarkName
p4642
g43
sVIsOwner
p4643
I0
sVSex
p4644
I0
sVStarFriend
p4645
I0
sVHideInputBarFlag
p4646
I0
sVChatRoomId
p4647
I0
sVEncryChatRoomId
p4648
g43
sVAttrStatus
p4649
I0
sVStatues
p4650
I0
stp4651
Rp4652
I1
bag25
(g3751
g30
(dp4653
VUserName
p4654
V@8f93a74cd22b243333af843b0d62f1bc
p4655
sVCity
p4656
V\u5e7f\u5dde
p4657
sVSnsFlag
p4658
I0
sVDisplayName
p4659
g43
sVUniFriend
p4660
I0
sVMemberCount
p4661
I0
sVOwnerUin
p4662
I0
sVMemberList
p4663
g41
sVAlias
p4664
g43
sVPYQuanPin
p4665
Vbaiyugezaixianyingyuan
p4666
sVSignature
p4667
V\u6b22\u8fce\u5173\u6ce8-\u767e\u57df\u9601\u5f71\u89c6\u3002\u3002\u3002\u8bf7\u8f93\u5165\uff1a\u5f71\u7247\u540d\u79f0 or \u5f71\u7247\u62fc\u97f3 or \u6f14\u5458\u540d \u6765\u8fdb\u884c\u6a21\u7cca\u641c\u7d22
p4668
sVRemarkPYInitial
p4669
g43
sVContactFlag
p4670
I3
sVUin
p4671
I0
sVNickName
p4672
V\u767e\u57df\u9601\u5728\u7ebf\u5f71\u9662
p4673
sVAppAccountFlag
p4674
I0
sVVerifyFlag
p4675
I8
sVRemarkPYQuanPin
p4676
g43
sVHeadImgUrl
p4677
V/cgi-bin/mmwebwx-bin/webwxgeticon?seq=666740650&username=@8f93a74cd22b243333af843b0d62f1bc&skey=@crypt_84c2f365_aeea69fa1143cd9832a4eea0fef6f1de
p4678
sVKeyWord
p4679
Vgh_
p4680
sVProvince
p4681
V\u5e7f\u4e1c
p4682
sVPYInitial
p4683
VBYGZXYY
p4684
sVRemarkName
p4685
g43
sVIsOwner
p4686
I0
sVSex
p4687
I0
sVStarFriend
p4688
I0
sVHideInputBarFlag
p4689
I0
sVChatRoomId
p4690
I0
sVEncryChatRoomId
p4691
g43
sVAttrStatus
p4692
I0
sVStatues
p4693
I0
stp4694
Rp4695
I1
bag25
(g3751
g30
(dp4696
VUserName
p4697
V@4c46385c8354768fa19a18cd140aec75
p4698
sVCity
p4699
V\u90d1\u5dde
p4700
sVSnsFlag
p4701
I0
sVDisplayName
p4702
g43
sVUniFriend
p4703
I0
sVMemberCount
p4704
I0
sVOwnerUin
p4705
I0
sVMemberList
p4706
g41
sVAlias
p4707
g43
sVPYQuanPin
p4708
VmoxiVIPshipinmianfeiguankan
p4709
sVSignature
p4710
V\u5168\u7f51VIP\u89c6\u9891\u514d\u8d39\u89c2\u770b\uff0c\u56de\u590d\u4f60\u60f3\u8981\u89c2\u770b\u7684\u89c6\u9891\u540d\u79f0\u5373\u53ef\u81ea\u52a8\u56de\u590d\u89c2\u770b\u89c6\u9891\u94fe\u63a5
p4711
sVRemarkPYInitial
p4712
g43
sVContactFlag
p4713
I3
sVUin
p4714
I0
sVNickName
p4715
V\u83ab\u60dcVIP\u89c6\u9891\u514d\u8d39\u89c2\u770b
p4716
sVAppAccountFlag
p4717
I0
sVVerifyFlag
p4718
I8
sVRemarkPYQuanPin
p4719
g43
sVHeadImgUrl
p4720
V/cgi-bin/mmwebwx-bin/webwxgeticon?seq=666740579&username=@4c46385c8354768fa19a18cd140aec75&skey=@crypt_84c2f365_aeea69fa1143cd9832a4eea0fef6f1de
p4721
sVKeyWord
p4722
Vgh_
p4723
sVProvince
p4724
V\u6cb3\u5357
p4725
sVPYInitial
p4726
VMXVIPSPMFGK
p4727
sVRemarkName
p4728
g43
sVIsOwner
p4729
I0
sVSex
p4730
I0
sVStarFriend
p4731
I0
sVHideInputBarFlag
p4732
I0
sVChatRoomId
p4733
I0
sVEncryChatRoomId
p4734
g43
sVAttrStatus
p4735
I0
sVStatues
p4736
I0
stp4737
Rp4738
I1
bag25
(g3751
g30
(dp4739
VUserName
p4740
V@125dbdc8c70a5e9d3babfb0a790c0217
p4741
sVCity
p4742
V\u897f\u57ce
p4743
sVSnsFlag
p4744
I0
sVDisplayName
p4745
g43
sVUniFriend
p4746
I0
sVMemberCount
p4747
I0
sVOwnerUin
p4748
I0
sVMemberList
p4749
g41
sVAlias
p4750
g43
sVPYQuanPin
p4751
Vmukewangimoocdingyuehao
p4752
sVSignature
p4753
V\u6155\u8bfe\u7f51\u5b98\u65b9\u7684\u8ba2\u9605\u53f7\uff0c\u6bcf\u5929\u63a8\u9001\u6765\u7740\u4e00\u7ebfIT\u5927\u5496\u7684\u6280\u672f\u5e72\u8d27\u3001\u804c\u573a\u7ecf\u9a8c\uff0c\u66f4\u91cd\u8981\u662f\u5468\u5468\u6709\u5927\u5bb6\u6700\u559c\u7231\u7684\u6155\u7c89\u798f\u5229\u6d3b\u52a8\uff01
p4754
sVRemarkPYInitial
p4755
g43
sVContactFlag
p4756
I3
sVUin
p4757
I0
sVNickName
p4758
V\u6155\u8bfe\u7f51imooc\u8ba2\u9605\u53f7
p4759
sVAppAccountFlag
p4760
I0
sVVerifyFlag
p4761
I24
sVRemarkPYQuanPin
p4762
g43
sVHeadImgUrl
p4763
V/cgi-bin/mmwebwx-bin/webwxgeticon?seq=668101786&username=@125dbdc8c70a5e9d3babfb0a790c0217&skey=@crypt_84c2f365_aeea69fa1143cd9832a4eea0fef6f1de
p4764
sVKeyWord
p4765
Vgh_
p4766
sVProvince
p4767
V\u5317\u4eac
p4768
sVPYInitial
p4769
VMKWIMOOCDYH
p4770
sVRemarkName
p4771
g43
sVIsOwner
p4772
I0
sVSex
p4773
I0
sVStarFriend
p4774
I0
sVHideInputBarFlag
p4775
I0
sVChatRoomId
p4776
I0
sVEncryChatRoomId
p4777
g43
sVAttrStatus
p4778
I0
sVStatues
p4779
I0
stp4780
Rp4781
I1
bag25
(g3751
g30
(dp4782
VUserName
p4783
V@a3745561c9accab3b890a8b82e5a60f6
p4784
sVCity
p4785
V\u90d1\u5dde
p4786
sVSnsFlag
p4787
I0
sVDisplayName
p4788
g43
sVUniFriend
p4789
I0
sVMemberCount
p4790
I0
sVOwnerUin
p4791
I0
sVMemberList
p4792
g41
sVAlias
p4793
g43
sVPYQuanPin
p4794
Vyujianawen
p4795
sVSignature
p4796
V\u4e0d\u71ac\u9e21\u6c64\uff0c\u4e0d\u8bb2\u5927\u9053\u7406\u3002
p4797
sVRemarkPYInitial
p4798
g43
sVContactFlag
p4799
I3
sVUin
p4800
I0
sVNickName
p4801
V\u9047\u89c1\u963f\u6e29
p4802
sVAppAccountFlag
p4803
I0
sVVerifyFlag
p4804
I8
sVRemarkPYQuanPin
p4805
g43
sVHeadImgUrl
p4806
V/cgi-bin/mmwebwx-bin/webwxgeticon?seq=668102177&username=@a3745561c9accab3b890a8b82e5a60f6&skey=@crypt_84c2f365_aeea69fa1143cd9832a4eea0fef6f1de
p4807
sVKeyWord
p4808
Vgh_
p4809
sVProvince
p4810
V\u6cb3\u5357
p4811
sVPYInitial
p4812
VYJAW
p4813
sVRemarkName
p4814
g43
sVIsOwner
p4815
I0
sVSex
p4816
I0
sVStarFriend
p4817
I0
sVHideInputBarFlag
p4818
I0
sVChatRoomId
p4819
I0
sVEncryChatRoomId
p4820
g43
sVAttrStatus
p4821
I0
sVStatues
p4822
I0
stp4823
Rp4824
I1
bag25
(g3751
g30
(dp4825
VUserName
p4826
V@eab0a74258096df3082b47e8abaa836a
p4827
sVCity
p4828
V\u671d\u9633
p4829
sVSnsFlag
p4830
I0
sVDisplayName
p4831
g43
sVUniFriend
p4832
I0
sVMemberCount
p4833
I0
sVOwnerUin
p4834
I0
sVMemberList
p4835
g41
sVAlias
p4836
g43
sVPYQuanPin
p4837
Vhekaiwenkaoyanyingyu
p4838
sVSignature
p4839
V\u4f55\u51ef\u6587\u8003\u7814\u82f1\u8bed\u8f85\u5bfc\u8d26\u53f7
p4840
sVRemarkPYInitial
p4841
g43
sVContactFlag
p4842
I3
sVUin
p4843
I0
sVNickName
p4844
V\u4f55\u51ef\u6587\u8003\u7814\u82f1\u8bed
p4845
sVAppAccountFlag
p4846
I0
sVVerifyFlag
p4847
I8
sVRemarkPYQuanPin
p4848
g43
sVHeadImgUrl
p4849
V/cgi-bin/mmwebwx-bin/webwxgeticon?seq=668103719&username=@eab0a74258096df3082b47e8abaa836a&skey=@crypt_84c2f365_aeea69fa1143cd9832a4eea0fef6f1de
p4850
sVKeyWord
p4851
Vgh_
p4852
sVProvince
p4853
V\u5317\u4eac
p4854
sVPYInitial
p4855
VHKWKYYY
p4856
sVRemarkName
p4857
g43
sVIsOwner
p4858
I0
sVSex
p4859
I0
sVStarFriend
p4860
I0
sVHideInputBarFlag
p4861
I0
sVChatRoomId
p4862
I0
sVEncryChatRoomId
p4863
g43
sVAttrStatus
p4864
I0
sVStatues
p4865
I0
stp4866
Rp4867
I1
bag25
(g3751
g30
(dp4868
VUserName
p4869
V@5b86eebf3096e676ca554828ff5e8758
p4870
sVCity
p4871
V\u90d1\u5dde
p4872
sVSnsFlag
p4873
I0
sVDisplayName
p4874
g43
sVUniFriend
p4875
I0
sVMemberCount
p4876
I0
sVOwnerUin
p4877
I0
sVMemberList
p4878
g41
sVAlias
p4879
g43
sVPYQuanPin
p4880
Vdezhujiaoyuanzhengzhou
p4881
sVSignature
p4882
V\u5730\u4e3b\u6821\u56ed\uff0c\u8d28\u9020\u5927\u5b66\u597d\u751f\u6d3b\u3002 \u4e3a\u5927\u5b66\u751f\u7528\u5fc3\u7cbe\u9009\u548c\u5b9a\u5236\u4f18\u8d28\u7684\u670d\u52a1\u548c\u5546\u54c1\uff0c\u8ba9\u5927\u5b66\u751f\u6d3b\uff0c\u82b1\u7684\u66f4\u5c11\uff0c\u53d8\u5f97\u66f4\u597d\uff01
p4883
sVRemarkPYInitial
p4884
g43
sVContactFlag
p4885
I1
sVUin
p4886
I0
sVNickName
p4887
V\u5730\u4e3b\u6821\u56ed\u90d1\u5dde
p4888
sVAppAccountFlag
p4889
I0
sVVerifyFlag
p4890
I24
sVRemarkPYQuanPin
p4891
g43
sVHeadImgUrl
p4892
V/cgi-bin/mmwebwx-bin/webwxgeticon?seq=668103191&username=@5b86eebf3096e676ca554828ff5e8758&skey=@crypt_84c2f365_aeea69fa1143cd9832a4eea0fef6f1de
p4893
sVKeyWord
p4894
Vgh_
p4895
sVProvince
p4896
V\u6cb3\u5357
p4897
sVPYInitial
p4898
VDZJYZZ
p4899
sVRemarkName
p4900
g43
sVIsOwner
p4901
I0
sVSex
p4902
I0
sVStarFriend
p4903
I0
sVHideInputBarFlag
p4904
I0
sVChatRoomId
p4905
I0
sVEncryChatRoomId
p4906
g43
sVAttrStatus
p4907
I0
sVStatues
p4908
I0
stp4909
Rp4910
I1
bag25
(g3751
g30
(dp4911
VUserName
p4912
V@35ad3e2b9de80f65e3b0c4455204aca8
p4913
sVCity
p4914
g43
sVSnsFlag
p4915
I0
sVDisplayName
p4916
g43
sVUniFriend
p4917
I0
sVMemberCount
p4918
I0
sVOwnerUin
p4919
I0
sVMemberList
p4920
g41
sVAlias
p4921
g43
sVPYQuanPin
p4922
Vtengxunketangchanpinxueyuan
p4923
sVSignature
p4924
V\u817e\u8baf\u8bfe\u5802\u4ea7\u54c1\u5b66\u9662\uff0c\u4e00\u4e2a\u7531\u817e\u8baf\u8bfe\u5802\u7b56\u5212\u3001\u4e1a\u5185\u77e5\u540d\u610f\u89c1\u9886\u8896\u53c2\u4e0e\u7684\u4f18\u8d28\u4ea7\u54c1\u4ea4\u6d41\u5e73\u53f0\uff0c\u5e0c\u671b\u548c\u66f4\u591a\u5173\u6ce8\u4ea7\u54c1\u9886\u57df\u7684\u540c\u5b66\u4e00\u8d77\u5b66\u4e60\u6210\u957f\u3002\u66f4\u591a\u5185\u5bb9\u8bf7\u5173\u6ce8\u201c\u817e\u8baf\u8bfe\u5802\u201d\u5b98\u65b9\u5fae\u4fe1\u516c\u4f17\u53f7\u3002
p4925
sVRemarkPYInitial
p4926
g43
sVContactFlag
p4927
I3
sVUin
p4928
I0
sVNickName
p4929
V\u817e\u8baf\u8bfe\u5802\u4ea7\u54c1\u5b66\u9662
p4930
sVAppAccountFlag
p4931
I0
sVVerifyFlag
p4932
I24
sVRemarkPYQuanPin
p4933
g43
sVHeadImgUrl
p4934
V/cgi-bin/mmwebwx-bin/webwxgeticon?seq=668116998&username=@35ad3e2b9de80f65e3b0c4455204aca8&skey=@crypt_84c2f365_aeea69fa1143cd9832a4eea0fef6f1de
p4935
sVKeyWord
p4936
Vgh_
p4937
sVProvince
p4938
g43
sVPYInitial
p4939
VTXKTCPXY
p4940
sVRemarkName
p4941
g43
sVIsOwner
p4942
I0
sVSex
p4943
I0
sVStarFriend
p4944
I0
sVHideInputBarFlag
p4945
I0
sVChatRoomId
p4946
I0
sVEncryChatRoomId
p4947
g43
sVAttrStatus
p4948
I0
sVStatues
p4949
I0
stp4950
Rp4951
I1
bag25
(g3751
g30
(dp4952
VUserName
p4953
V@5f5312d88f1d13361e679aa58f8947cc
p4954
sVCity
p4955
V\u90d1\u5dde
p4956
sVSnsFlag
p4957
I0
sVDisplayName
p4958
g43
sVUniFriend
p4959
I0
sVMemberCount
p4960
I0
sVOwnerUin
p4961
I0
sVMemberList
p4962
g41
sVAlias
p4963
g43
sVPYQuanPin
p4964
Vmudingtehui
p4965
sVSignature
p4966
V\u6167\u8bda\u6559\u80b2\u5b98\u65b9\u670d\u52a1\u53f7\uff0c\u6167\u8bda\u6559\u80b2\u662f\u90d1\u5dde\u79fb\u52a8\u6821\u56ed\u5e02\u573a\u7684\u552f\u4e00\u5408\u4f5c\u4f19\u4f34\u3002\u6728\u4e01\u7279\u60e0\uff0c\u901a\u8fc7\u89c4\u6a21\u5316\u7684\u6821\u56ed\u8425\u9500\u961f\uff0c\u4e00\u4e3a\u5728\u6821\u5927\u5b66\u751f\u63d0\u4f9b\u4f18\u60e0\u7684\u5546\u54c1\u548c\u670d\u52a1\uff0c\u4e8c\u4e3a\u4f01\u4e1a\u63d0\u4f9b \u201c\u76f4\u9500+\u5730\u63a8\u201d\u9500\u552e\u670d\u52a1\u3002\u53ef\u5728\u7ebf\u63d0\u4ea4\u4e1a\u52a1\u3001\u7533\u8bf7\u6210\u4e3a\u6821\u56ed\u8425\u9500\u5458\u3001\u67e5\u8be2\u529e\u7406\u8fdb\u7a0b\u3001\u63d0\u4ea4\u5546\u52a1\u5408\u4f5c\u3002
p4967
sVRemarkPYInitial
p4968
g43
sVContactFlag
p4969
I1
sVUin
p4970
I0
sVNickName
p4971
V\u6728\u4e01\u7279\u60e0
p4972
sVAppAccountFlag
p4973
I0
sVVerifyFlag
p4974
I24
sVRemarkPYQuanPin
p4975
g43
sVHeadImgUrl
p4976
V/cgi-bin/mmwebwx-bin/webwxgeticon?seq=668106008&username=@5f5312d88f1d13361e679aa58f8947cc&skey=@crypt_84c2f365_aeea69fa1143cd9832a4eea0fef6f1de
p4977
sVKeyWord
p4978
Vgh_
p4979
sVProvince
p4980
V\u6cb3\u5357
p4981
sVPYInitial
p4982
VMDTH
p4983
sVRemarkName
p4984
g43
sVIsOwner
p4985
I0
sVSex
p4986
I0
sVStarFriend
p4987
I0
sVHideInputBarFlag
p4988
I0
sVChatRoomId
p4989
I0
sVEncryChatRoomId
p4990
g43
sVAttrStatus
p4991
I0
sVStatues
p4992
I0
stp4993
Rp4994
I1
bag25
(g3751
g30
(dp4995
VUserName
p4996
V@4775c6806e506135d90e7fc447d11899
p4997
sVCity
p4998
V\u6df1\u5733
p4999
sVSnsFlag
p5000
I0
sVDisplayName
p5001
g43
sVUniFriend
p5002
I0
sVMemberCount
p5003
I0
sVOwnerUin
p5004
I0
sVMemberList
p5005
g41
sVAlias
p5006
g43
sVPYQuanPin
p5007
VQQanquanzhongxin
p5008
sVSignature
p5009
VQQ\u5b89\u5168\u4e2d\u5fc3\u5b98\u65b9\u5fae\u4fe1\u3002\u52aa\u529b\u4fdd\u62a4\u60a8\u7684QQ\u5b89\u5168\uff0c\u5173\u952e\u65f6\u523b\u53ca\u65f6\u63d0\u9192\uff0c\u968f\u65f6\u638c\u63e1\u5e10\u53f7\u5b89\u5168\u52a8\u6001\u3002
p5010
sVRemarkPYInitial
p5011
g43
sVContactFlag
p5012
I1
sVUin
p5013
I0
sVNickName
p5014
VQQ\u5b89\u5168\u4e2d\u5fc3
p5015
sVAppAccountFlag
p5016
I0
sVVerifyFlag
p5017
I24
sVRemarkPYQuanPin
p5018
g43
sVHeadImgUrl
p5019
V/cgi-bin/mmwebwx-bin/webwxgeticon?seq=676013130&username=@4775c6806e506135d90e7fc447d11899&skey=@crypt_84c2f365_aeea69fa1143cd9832a4eea0fef6f1de
p5020
sVKeyWord
p5021
Vqqs
p5022
sVProvince
p5023
V\u5e7f\u4e1c
p5024
sVPYInitial
p5025
VQQAQZX
p5026
sVRemarkName
p5027
g43
sVIsOwner
p5028
I0
sVSex
p5029
I0
sVStarFriend
p5030
I0
sVHideInputBarFlag
p5031
I0
sVChatRoomId
p5032
I0
sVEncryChatRoomId
p5033
g43
sVAttrStatus
p5034
I0
sVStatues
p5035
I0
stp5036
Rp5037
I1
bag25
(g3751
g30
(dp5038
VUserName
p5039
V@02bbd3b71291d2ae316920f651cd1b0e
p5040
sVCity
p5041
V\u5e7f\u5dde
p5042
sVSnsFlag
p5043
I0
sVDisplayName
p5044
g43
sVUniFriend
p5045
I0
sVMemberCount
p5046
I0
sVOwnerUin
p5047
I0
sVMemberList
p5048
g41
sVAlias
p5049
g43
sVPYQuanPin
p5050
Vgongzhongpingtaianquanzhushou
p5051
sVSignature
p5052
V\u63d0\u4f9b\u5fae\u4fe1\u516c\u4f17\u53f7\u767b\u5f55\u548c\u7fa4\u53d1\u7b49\u5b89\u5168\u64cd\u4f5c\uff0c\u5728\u624b\u673a\u4e0a\u67e5\u6536\u6d88\u606f\u3001\u8bc4\u8bba\u3001\u8d5e\u8d4f\uff0c\u65b0\u5efa\u7fa4\u53d1\u548c\u67e5\u770b\u7fa4\u53d1\u5386\u53f2\u3002
p5053
sVRemarkPYInitial
p5054
g43
sVContactFlag
p5055
I1
sVUin
p5056
I0
sVNickName
p5057
V\u516c\u4f17\u5e73\u53f0\u5b89\u5168\u52a9\u624b
p5058
sVAppAccountFlag
p5059
I0
sVVerifyFlag
p5060
I24
sVRemarkPYQuanPin
p5061
g43
sVHeadImgUrl
p5062
V/cgi-bin/mmwebwx-bin/webwxgeticon?seq=666740575&username=@02bbd3b71291d2ae316920f651cd1b0e&skey=@crypt_84c2f365_aeea69fa1143cd9832a4eea0fef6f1de
p5063
sVKeyWord
p5064
Vmph
p5065
sVProvince
p5066
V\u5e7f\u4e1c
p5067
sVPYInitial
p5068
VGZPTAQZS
p5069
sVRemarkName
p5070
g43
sVIsOwner
p5071
I0
sVSex
p5072
I0
sVStarFriend
p5073
I0
sVHideInputBarFlag
p5074
I0
sVChatRoomId
p5075
I0
sVEncryChatRoomId
p5076
g43
sVAttrStatus
p5077
I98459
sVStatues
p5078
I0
stp5079
Rp5080
I1
bag25
(g3751
g30
(dp5081
VUserName
p5082
V@8695f6b14652b0ea3d77cf957448cdf4
p5083
sVCity
p5084
V\u6d77\u6dc0
p5085
sVSnsFlag
p5086
I0
sVDisplayName
p5087
g43
sVUniFriend
p5088
I0
sVMemberCount
p5089
I0
sVOwnerUin
p5090
I0
sVMemberList
p5091
g41
sVAlias
p5092
g43
sVPYQuanPin
p5093
Vyoudaoyunbiji
p5094
sVSignature
p5095
V\u6709\u9053\u4e91\u7b14\u8bb0\u662f\u4e00\u6b3e\u80fd\u5728\u7535\u8111\u3001\u624b\u673a\u3001\u7f51\u9875\u3001\u5e73\u677f\u4f7f\u7528\u7684\u7b14\u8bb0\u5e94\u7528\u3002\u4f60\u5728\u4efb\u610f\u4e00\u4e2a\u5e73\u53f0\u7f16\u8f91\u7684\u5185\u5bb9\uff0c\u90fd\u53ef\u5728\u5176\u4ed6\u5e73\u53f0\u6d4f\u89c8\u548c\u4fee\u6539\u3002\u540c\u65f6\u8fd8\u53ef\u4ee5\u4e00\u952e\u6536\u85cf\u5fae\u535a\u3001\u5fae\u4fe1\u3001\u7f51\u9875\u7b49\uff0c\u6c38\u4e45\u4fdd\u5b58\u548c\u7ba1\u7406\u4f60\u73cd\u7231\u7684\u5185\u5bb9\u3002
p5096
sVRemarkPYInitial
p5097
g43
sVContactFlag
p5098
I1
sVUin
p5099
I0
sVNickName
p5100
V\u6709\u9053\u4e91\u7b14\u8bb0
p5101
sVAppAccountFlag
p5102
I0
sVVerifyFlag
p5103
I24
sVRemarkPYQuanPin
p5104
g43
sVHeadImgUrl
p5105
V/cgi-bin/mmwebwx-bin/webwxgeticon?seq=668107900&username=@8695f6b14652b0ea3d77cf957448cdf4&skey=@crypt_84c2f365_aeea69fa1143cd9832a4eea0fef6f1de
p5106
sVKeyWord
p5107
Vgh_
p5108
sVProvince
p5109
V\u5317\u4eac
p5110
sVPYInitial
p5111
VYDYBJ
p5112
sVRemarkName
p5113
g43
sVIsOwner
p5114
I0
sVSex
p5115
I0
sVStarFriend
p5116
I0
sVHideInputBarFlag
p5117
I0
sVChatRoomId
p5118
I0
sVEncryChatRoomId
p5119
g43
sVAttrStatus
p5120
I0
sVStatues
p5121
I0
stp5122
Rp5123
I1
bag25
(g3751
g30
(dp5124
VUserName
p5125
V@366645a7b3a838ccea932fd219d0198d
p5126
sVCity
p5127
V\u63ed\u9633
p5128
sVSnsFlag
p5129
I0
sVDisplayName
p5130
g43
sVUniFriend
p5131
I0
sVMemberCount
p5132
I0
sVOwnerUin
p5133
I0
sVMemberList
p5134
g41
sVAlias
p5135
g43
sVPYQuanPin
p5136
Vjingyikejiyouxiangongsi
p5137
sVSignature
p5138
V\u4e13\u4e1a\u6613\u8bed\u8a00\u7f16\u7a0b\u4ea4\u6d41\u57f9\u8bad\u793e\u533a
p5139
sVRemarkPYInitial
p5140
g43
sVContactFlag
p5141
I1
sVUin
p5142
I0
sVNickName
p5143
V\u7cbe\u6613\u79d1\u6280\u6709\u9650\u516c\u53f8
p5144
sVAppAccountFlag
p5145
I0
sVVerifyFlag
p5146
I24
sVRemarkPYQuanPin
p5147
g43
sVHeadImgUrl
p5148
V/cgi-bin/mmwebwx-bin/webwxgeticon?seq=652565431&username=@366645a7b3a838ccea932fd219d0198d&skey=@crypt_84c2f365_aeea69fa1143cd9832a4eea0fef6f1de
p5149
sVKeyWord
p5150
Vgh_
p5151
sVProvince
p5152
V\u5e7f\u4e1c
p5153
sVPYInitial
p5154
VJYKJYXGS
p5155
sVRemarkName
p5156
g43
sVIsOwner
p5157
I0
sVSex
p5158
I0
sVStarFriend
p5159
I0
sVHideInputBarFlag
p5160
I0
sVChatRoomId
p5161
I0
sVEncryChatRoomId
p5162
g43
sVAttrStatus
p5163
I0
sVStatues
p5164
I0
stp5165
Rp5166
I1
bag25
(g3751
g30
(dp5167
VUserName
p5168
V@af5dd8009da34da0088f096b74c6d5a0
p5169
sVCity
p5170
V\u897f\u57ce
p5171
sVSnsFlag
p5172
I0
sVDisplayName
p5173
g43
sVUniFriend
p5174
I0
sVMemberCount
p5175
I0
sVOwnerUin
p5176
I0
sVMemberList
p5177
g41
sVAlias
p5178
g43
sVPYQuanPin
p5179
Vzhongguoyidong10086
p5180
sVSignature
p5181
V\u4e2d\u56fd\u79fb\u52a810086\u5b98\u65b9\u516c\u4f17\u53f7\uff0c\u67e5\u6d41\u91cf\u3001\u67e5\u8bdd\u8d39\u3001\u67e5\u79ef\u5206\uff0c\u5404\u79cd\u4f18\u60e0\u6d3b\u52a8\u505c\u4e0d\u4e0b\u6765\uff0c\u73b0\u5728\u8fd8\u53ef\u4ee5\u5728\u7ebf\u529e\u7406\u5b9e\u540d\u8865\u767b\u8bb0\u4e86\uff01\u8981\u8bb0\u5f97\u5173\u6ce8\u7ed1\u5b9a\u54e6\uff01
p5182
sVRemarkPYInitial
p5183
g43
sVContactFlag
p5184
I1
sVUin
p5185
I0
sVNickName
p5186
V\u4e2d\u56fd\u79fb\u52a810086
p5187
sVAppAccountFlag
p5188
I0
sVVerifyFlag
p5189
I24
sVRemarkPYQuanPin
p5190
g43
sVHeadImgUrl
p5191
V/cgi-bin/mmwebwx-bin/webwxgeticon?seq=643730073&username=@af5dd8009da34da0088f096b74c6d5a0&skey=@crypt_84c2f365_aeea69fa1143cd9832a4eea0fef6f1de
p5192
sVKeyWord
p5193
Vgh_
p5194
sVProvince
p5195
V\u5317\u4eac
p5196
sVPYInitial
p5197
VZGYD10086
p5198
sVRemarkName
p5199
g43
sVIsOwner
p5200
I0
sVSex
p5201
I0
sVStarFriend
p5202
I0
sVHideInputBarFlag
p5203
I0
sVChatRoomId
p5204
I0
sVEncryChatRoomId
p5205
g43
sVAttrStatus
p5206
I0
sVStatues
p5207
I0
stp5208
Rp5209
I1
bag25
(g3751
g30
(dp5210
VUserName
p5211
V@b31a28710751584cdfa874ffe4f465c9
p5212
sVCity
p5213
V\u6d77\u6dc0
p5214
sVSnsFlag
p5215
I0
sVDisplayName
p5216
g43
sVUniFriend
p5217
I0
sVMemberCount
p5218
I0
sVOwnerUin
p5219
I0
sVMemberList
p5220
g41
sVAlias
p5221
g43
sVPYQuanPin
p5222
Vzhujiwu
p5223
sVSignature
p5224
V\u4e3b\u673a\u5c4b\u63d0\u4f9b\u4e91\u670d\u52a1\u5668\uff0c\u865a\u62df\u4e3b\u673a\uff0c\u57df\u540d\u6ce8\u518c\u7b49\u4e1a\u52a1
p5225
sVRemarkPYInitial
p5226
g43
sVContactFlag
p5227
I1
sVUin
p5228
I0
sVNickName
p5229
V\u4e3b\u673a\u5c4b
p5230
sVAppAccountFlag
p5231
I0
sVVerifyFlag
p5232
I24
sVRemarkPYQuanPin
p5233
g43
sVHeadImgUrl
p5234
V/cgi-bin/mmwebwx-bin/webwxgeticon?seq=652564802&username=@b31a28710751584cdfa874ffe4f465c9&skey=@crypt_84c2f365_aeea69fa1143cd9832a4eea0fef6f1de
p5235
sVKeyWord
p5236
Vgh_
p5237
sVProvince
p5238
V\u5317\u4eac
p5239
sVPYInitial
p5240
VZJW
p5241
sVRemarkName
p5242
g43
sVIsOwner
p5243
I0
sVSex
p5244
I0
sVStarFriend
p5245
I0
sVHideInputBarFlag
p5246
I0
sVChatRoomId
p5247
I0
sVEncryChatRoomId
p5248
g43
sVAttrStatus
p5249
I0
sVStatues
p5250
I0
stp5251
Rp5252
I1
bag25
(g3751
g30
(dp5253
VUserName
p5254
V@f13075e56e53361c9916821629552630
p5255
sVCity
p5256
g43
sVSnsFlag
p5257
I0
sVDisplayName
p5258
g43
sVUniFriend
p5259
I0
sVMemberCount
p5260
I0
sVOwnerUin
p5261
I0
sVMemberList
p5262
g41
sVAlias
p5263
g43
sVPYQuanPin
p5264
Vweixinzhifu
p5265
sVSignature
p5266
V\u5e2e\u52a9\u89e3\u51b3\u5fae\u4fe1\u652f\u4ed8\u4e2d\u9047\u5230\u7684\u56f0\u96be\uff0c\u6536\u96c6\u5173\u4e8e\u5fae\u4fe1\u652f\u4ed8\u7684\u5efa\u8bae\u53cd\u9988\u3002
p5267
sVRemarkPYInitial
p5268
g43
sVContactFlag
p5269
I1
sVUin
p5270
I0
sVNickName
p5271
V\u5fae\u4fe1\u652f\u4ed8
p5272
sVAppAccountFlag
p5273
I0
sVVerifyFlag
p5274
I24
sVRemarkPYQuanPin
p5275
g43
sVHeadImgUrl
p5276
V/cgi-bin/mmwebwx-bin/webwxgeticon?seq=634151440&username=@f13075e56e53361c9916821629552630&skey=@crypt_84c2f365_aeea69fa1143cd9832a4eea0fef6f1de
p5277
sVKeyWord
p5278
Vgh_
p5279
sVProvince
p5280
V\u5e7f\u4e1c
p5281
sVPYInitial
p5282
VWXZF
p5283
sVRemarkName
p5284
g43
sVIsOwner
p5285
I0
sVSex
p5286
I0
sVStarFriend
p5287
I0
sVHideInputBarFlag
p5288
I0
sVChatRoomId
p5289
I0
sVEncryChatRoomId
p5290
g43
sVAttrStatus
p5291
I0
sVStatues
p5292
I0
stp5293
Rp5294
I1
bag25
(g3751
g30
(dp5295
VUserName
p5296
V@dea48f19692c393b4632bf86e0adcd41
p5297
sVCity
p5298
V\u6df1\u5733
p5299
sVSnsFlag
p5300
I0
sVDisplayName
p5301
g43
sVUniFriend
p5302
I0
sVMemberCount
p5303
I0
sVOwnerUin
p5304
I0
sVMemberList
p5305
g41
sVAlias
p5306
g43
sVPYQuanPin
p5307
Vtengxunchongzhi
p5308
sVSignature
p5309
V\u5145\u503cQ\u5e01/\u5305\u6708\u670d\u52a1\u5f00\u901a/\u6e38\u620f\u70b9\u5238\u5145\u503c\uff1a\u652f\u6301\u8d22\u4ed8\u901a\u3001\u94f6\u884c\u5361\u5feb\u6377\u652f\u4ed8\u3001QQ\u5361\u3001\u624b\u673a\u5145\u503c\u5361\u3001\u5fae\u4fe1\u652f\u4ed8\u7b49\u591a\u4e2a\u6e20\u9053\uff0c\u968f\u65f6\u968f\u5730\u6ee1\u8db3\u60a8\u7684\u5145\u503c\u9700\u6c42\u3002
p5310
sVRemarkPYInitial
p5311
g43
sVContactFlag
p5312
I1
sVUin
p5313
I0
sVNickName
p5314
V\u817e\u8baf\u5145\u503c
p5315
sVAppAccountFlag
p5316
I0
sVVerifyFlag
p5317
I24
sVRemarkPYQuanPin
p5318
g43
sVHeadImgUrl
p5319
V/cgi-bin/mmwebwx-bin/webwxgeticon?seq=634151445&username=@dea48f19692c393b4632bf86e0adcd41&skey=@crypt_84c2f365_aeea69fa1143cd9832a4eea0fef6f1de
p5320
sVKeyWord
p5321
Vgh_
p5322
sVProvince
p5323
V\u5e7f\u4e1c
p5324
sVPYInitial
p5325
VTXCZ
p5326
sVRemarkName
p5327
g43
sVIsOwner
p5328
I0
sVSex
p5329
I0
sVStarFriend
p5330
I0
sVHideInputBarFlag
p5331
I0
sVChatRoomId
p5332
I0
sVEncryChatRoomId
p5333
g43
sVAttrStatus
p5334
I0
sVStatues
p5335
I0
stp5336
Rp5337
I1
bag25
(g3751
g30
(dp5338
VUserName
p5339
V@fd936f8a1609a00314cba8790bfcae01
p5340
sVCity
p5341
V\u90d1\u5dde
p5342
sVSnsFlag
p5343
I0
sVDisplayName
p5344
g43
sVUniFriend
p5345
I0
sVMemberCount
p5346
I0
sVOwnerUin
p5347
I0
sVMemberList
p5348
g41
sVAlias
p5349
g43
sVPYQuanPin
p5350
Vzhengzhouqinggongyexueyuan
p5351
sVSignature
p5352
V\u90d1\u5dde\u8f7b\u5de5\u4e1a\u5b66\u9662\u5b98\u65b9\u516c\u4f17\u53f7 \u5173\u6ce8\u540e\u60a8\u80fd\uff1a 1.\u67e5\u770b\u6700\u65b0\u7684\u6821\u56ed\u65b0\u95fb\uff1b 2.\u67e5\u770b\u4e24\u6821\u533a\u73ed\u8f66\u3001\u7a7a\u6559\u5ba4\u7b49\u4fe1\u606f\uff1b3.\u638c\u63e1\u5b66\u6821\u6700\u65b0\u6982\u51b5\uff1b4.\u4e86\u89e3\u62db\u751f\u5c31\u4e1a\u4fe1\u606f\u3002
p5353
sVRemarkPYInitial
p5354
g43
sVContactFlag
p5355
I1
sVUin
p5356
I0
sVNickName
p5357
V\u90d1\u5dde\u8f7b\u5de5\u4e1a\u5b66\u9662
p5358
sVAppAccountFlag
p5359
I0
sVVerifyFlag
p5360
I24
sVRemarkPYQuanPin
p5361
g43
sVHeadImgUrl
p5362
V/cgi-bin/mmwebwx-bin/webwxgeticon?seq=634152479&username=@fd936f8a1609a00314cba8790bfcae01&skey=@crypt_84c2f365_aeea69fa1143cd9832a4eea0fef6f1de
p5363
sVKeyWord
p5364
Vgh_
p5365
sVProvince
p5366
V\u6cb3\u5357
p5367
sVPYInitial
p5368
VZZQGYXY
p5369
sVRemarkName
p5370
g43
sVIsOwner
p5371
I0
sVSex
p5372
I0
sVStarFriend
p5373
I0
sVHideInputBarFlag
p5374
I0
sVChatRoomId
p5375
I0
sVEncryChatRoomId
p5376
g43
sVAttrStatus
p5377
I0
sVStatues
p5378
I0
stp5379
Rp5380
I1
bag25
(g3751
g30
(dp5381
VUserName
p5382
V@8be8e654f4593469a5794ccc170c8eb0
p5383
sVCity
p5384
V\u4e1c\u57ce
p5385
sVSnsFlag
p5386
I0
sVDisplayName
p5387
g43
sVUniFriend
p5388
I0
sVMemberCount
p5389
I0
sVOwnerUin
p5390
I0
sVMemberList
p5391
g41
sVAlias
p5392
g43
sVPYQuanPin
p5393
Vqingsongchouweiai
p5394
sVSignature
p5395
V\u4f20\u9012\u7231\u5fc3\u6b63\u80fd\u91cf
p5396
sVRemarkPYInitial
p5397
g43
sVContactFlag
p5398
I1
sVUin
p5399
I0
sVNickName
p5400
V\u8f7b\u677e\u7b79\u5fae\u7231
p5401
sVAppAccountFlag
p5402
I0
sVVerifyFlag
p5403
I24
sVRemarkPYQuanPin
p5404
g43
sVHeadImgUrl
p5405
V/cgi-bin/mmwebwx-bin/webwxgeticon?seq=676014353&username=@8be8e654f4593469a5794ccc170c8eb0&skey=@crypt_84c2f365_aeea69fa1143cd9832a4eea0fef6f1de
p5406
sVKeyWord
p5407
Vgh_
p5408
sVProvince
p5409
V\u5317\u4eac
p5410
sVPYInitial
p5411
VQSCWA
p5412
sVRemarkName
p5413
g43
sVIsOwner
p5414
I0
sVSex
p5415
I0
sVStarFriend
p5416
I0
sVHideInputBarFlag
p5417
I0
sVChatRoomId
p5418
I0
sVEncryChatRoomId
p5419
g43
sVAttrStatus
p5420
I0
sVStatues
p5421
I0
stp5422
Rp5423
I1
bag25
(g3751
g30
(dp5424
VUserName
p5425
V@ac91a9d4bb0c6a8218d1c11c930225e4
p5426
sVCity
p5427
V\u90d1\u5dde
p5428
sVSnsFlag
p5429
I0
sVDisplayName
p5430
g43
sVUniFriend
p5431
I0
sVMemberCount
p5432
I0
sVOwnerUin
p5433
I0
sVMemberList
p5434
g41
sVAlias
p5435
g43
sVPYQuanPin
p5436
Vzhengzhouqinggongyexueyuanxueshenggongzuobu
p5437
sVSignature
p5438
V\u5c55\u793a\u6211\u6821\u5b66\u751f\u5de5\u4f5c\u98ce\u91c7\uff0c\u670d\u52a1\u5e7f\u5927\u5e08\u751f\u3002
p5439
sVRemarkPYInitial
p5440
g43
sVContactFlag
p5441
I1
sVUin
p5442
I0
sVNickName
p5443
V\u90d1\u5dde\u8f7b\u5de5\u4e1a\u5b66\u9662\u5b66\u751f\u5de5\u4f5c\u90e8
p5444
sVAppAccountFlag
p5445
I0
sVVerifyFlag
p5446
I24
sVRemarkPYQuanPin
p5447
g43
sVHeadImgUrl
p5448
V/cgi-bin/mmwebwx-bin/webwxgeticon?seq=676010689&username=@ac91a9d4bb0c6a8218d1c11c930225e4&skey=@crypt_84c2f365_aeea69fa1143cd9832a4eea0fef6f1de
p5449
sVKeyWord
p5450
Vgh_
p5451
sVProvince
p5452
V\u6cb3\u5357
p5453
sVPYInitial
p5454
VZZQGYXYXSGZB
p5455
sVRemarkName
p5456
g43
sVIsOwner
p5457
I0
sVSex
p5458
I0
sVStarFriend
p5459
I0
sVHideInputBarFlag
p5460
I0
sVChatRoomId
p5461
I0
sVEncryChatRoomId
p5462
g43
sVAttrStatus
p5463
I0
sVStatues
p5464
I0
stp5465
Rp5466
I1
bag25
(g3751
g30
(dp5467
VUserName
p5468
V@2668eafd2f3262da0ca2e4e7b64418cb
p5469
sVCity
p5470
V\u957f\u5b81
p5471
sVSnsFlag
p5472
I0
sVDisplayName
p5473
g43
sVUniFriend
p5474
I0
sVMemberCount
p5475
I0
sVOwnerUin
p5476
I0
sVMemberList
p5477
g41
sVAlias
p5478
g43
sVPYQuanPin
p5479
Verdianchangdexiaoyouhu
p5480
sVSignature
p5481
V\u8fd9\u91cc\u662f\u4e8c\u5e97\u957f\u7684\u5c0f\u6e38\u620f\u5b98\u65b9\u516c\u4f17\u53f7
p5482
sVRemarkPYInitial
p5483
g43
sVContactFlag
p5484
I1
sVUin
p5485
I0
sVNickName
p5486
V\u4e8c\u5e97\u957f\u7684\u5c0f\u6e38\u620f
p5487
sVAppAccountFlag
p5488
I0
sVVerifyFlag
p5489
I24
sVRemarkPYQuanPin
p5490
g43
sVHeadImgUrl
p5491
V/cgi-bin/mmwebwx-bin/webwxgeticon?seq=668103544&username=@2668eafd2f3262da0ca2e4e7b64418cb&skey=@crypt_84c2f365_aeea69fa1143cd9832a4eea0fef6f1de
p5492
sVKeyWord
p5493
Vgh_
p5494
sVProvince
p5495
V\u4e0a\u6d77
p5496
sVPYInitial
p5497
VEDCDXYH
p5498
sVRemarkName
p5499
g43
sVIsOwner
p5500
I0
sVSex
p5501
I0
sVStarFriend
p5502
I0
sVHideInputBarFlag
p5503
I0
sVChatRoomId
p5504
I0
sVEncryChatRoomId
p5505
g43
sVAttrStatus
p5506
I0
sVStatues
p5507
I0
stp5508
Rp5509
I1
bag25
(g3751
g30
(dp5510
VUserName
p5511
V@616a202749f3855cb6ad28bb0cc6bbdb
p5512
sVCity
p5513
g43
sVSnsFlag
p5514
I0
sVDisplayName
p5515
g43
sVUniFriend
p5516
I0
sVMemberCount
p5517
I0
sVOwnerUin
p5518
I0
sVMemberList
p5519
g41
sVAlias
p5520
g43
sVPYQuanPin
p5521
Vxunfeikaifangpingtai
p5522
sVSignature
p5523
V\u4ee5\u8bed\u97f3\u6280\u672f\u4e3a\u6838\u5fc3\u7684\u4eba\u5de5\u667a\u80fd\u5f00\u653e\u5e73\u53f0\uff0c\u8bbf\u95ee[xfyun.cn]\u514d\u8d39\u63a5\u5165\u5404\u7c7b\u4e91\u7aef\u4eba\u5de5\u667a\u80fd\u6280\u672f\u670d\u52a1\u3002  \u5173\u6ce8\u8baf\u98de\u5f00\u653e\u5e73\u53f0\u670d\u52a1\u53f7\uff1a\u2460\u968f\u65f6\u67e5\u770b\u5e94\u7528\u6570\u636e\u3001\u8ddf\u8fdb\u5ba1\u6838\u8fdb\u5ea6\u2461\u83b7\u53d6\u6700\u65b0\u6280\u672f\u5e72\u8d27\u3001\u4e86\u89e3\u8baf\u98de\u5148\u950b\u79d1\u6280\u2462\u5404\u7c7b\u6280\u672f\u95ee\u9898\u7b54\u7591\u3001\u4e1a\u52a1\u9700\u6c42\u521d\u6b65\u5bf9\u63a5\u3002
p5524
sVRemarkPYInitial
p5525
g43
sVContactFlag
p5526
I1
sVUin
p5527
I0
sVNickName
p5528
V\u8baf\u98de\u5f00\u653e\u5e73\u53f0
p5529
sVAppAccountFlag
p5530
I0
sVVerifyFlag
p5531
I24
sVRemarkPYQuanPin
p5532
g43
sVHeadImgUrl
p5533
V/cgi-bin/mmwebwx-bin/webwxgeticon?seq=668103688&username=@616a202749f3855cb6ad28bb0cc6bbdb&skey=@crypt_84c2f365_aeea69fa1143cd9832a4eea0fef6f1de
p5534
sVKeyWord
p5535
Vgh_
p5536
sVProvince
p5537
V\u5b89\u5fbd
p5538
sVPYInitial
p5539
VXFKFPT
p5540
sVRemarkName
p5541
g43
sVIsOwner
p5542
I0
sVSex
p5543
I0
sVStarFriend
p5544
I0
sVHideInputBarFlag
p5545
I0
sVChatRoomId
p5546
I0
sVEncryChatRoomId
p5547
g43
sVAttrStatus
p5548
I0
sVStatues
p5549
I0
stp5550
Rp5551
I1
batp5552
Rp5553
I1
bssS'loginInfo'
p5554
(dp5555
S'SyncKey'
p5556
(dp5557
VCount
p5558
I4
sVList
p5559
(lp5560
(dp5561
VVal
p5562
I676015590
sVKey
p5563
I1
sa(dp5564
VVal
p5565
I676016014
sVKey
p5566
I2
sa(dp5567
VVal
p5568
I676016012
sVKey
p5569
I3
sa(dp5570
VVal
p5571
I1503535862
sVKey
p5572
I1000
sassS'syncUrl'
p5573
S'https://webpush.wx2.qq.com/cgi-bin/mmwebwx-bin'
p5574
sS'skey'
p5575
V@crypt_84c2f365_aeea69fa1143cd9832a4eea0fef6f1de
p5576
sS'wxuin'
p5577
V2704422431
p5578
sS'synckey'
p5579
S'1_676015590|2_676016014|3_676016012|1000_1503535862'
p5580
sS'url'
p5581
Vhttps://wx2.qq.com/cgi-bin/mmwebwx-bin
p5582
sS'pass_ticket'
p5583
VK%2BaAFFQsF5oNgLrsjloyAF6a6bA8wBDJfNRJ1L099I6um3nOWBNq2jT67%2FQ53403
p5584
sS'wxsid'
p5585
VYTpoEutkltwDCxyq
p5586
sS'InviteStartCount'
p5587
I40
sS'deviceid'
p5588
S'e995863318800123'
p5589
sS'fileUrl'
p5590
S'https://file.wx2.qq.com/cgi-bin/mmwebwx-bin'
p5591
sS'BaseRequest'
p5592
(dp5593
g45
g5578
sS'Skey'
p5594
g5576
sS'DeviceID'
p5595
g5584
sS'Sid'
p5596
g5586
ssS'User'
p5597
g25
(g29
g30
(dp5598
g32
g22
sg33
g34
sg35
g34
sg36
I0
sg38
g41
sg42
g43
sg44
g43
sg69
I1
sg46
I0
sg47
I0
sg48
g34
sg49
g34
sg50
g43
sg51
g43
sg52
I0
sg53
I0
sg54
I1
sg55
g34
sg56
I0
sg59
I0
sg57
I1
sg58
I0
sg37
I0
sg60
g34
sg61
g62
sg63
I0
sg64
g65
sg66
g43
sg67
g68
sg45
L2704422431L
sg70
I0
sg71
I0
stp5599
Rp5600
I1
bss.